(dp0
S'files'
p1
(lp2
S'emb.npy'
p3
aS'Wx.npy'
p4
aS'Wh.npy'
p5
aS'W.npy'
p6
aS'bh.npy'
p7
aS'b.npy'
p8
aS'h0.npy'
p9
asS'hyperParams'
p10
(dp11
S'nh'
p12
I40
sS'cs'
p13
I7
sS'de'
p14
I100
sS'nc'
p15
I7
sS'ne'
p16
I2213
ssS'names'
p17
(lp18
S'emb'
p19
aS'Wx'
p20
aS'Wh'
p21
aS'W'
p22
aS'bh'
p23
aS'b'
p24
aS'h0'
p25
as.