(dp0
S'labelIndex'
p1
ccopy_reg
_reconstructor
p2
(cpreprocessing.index
WordIndex
p3
c__builtin__
object
p4
Ntp5
Rp6
(dp7
S'index2words'
p8
(dp9
I0
S'SUB'
p10
sI1
S'PRED'
p11
sI2
S'OBJ'
p12
sI3
S'LOC'
p13
sI4
S'TIME'
p14
sI5
S'REST'
p15
sI6
S'CON'
p16
ssS'changed'
p17
I01
sS'words2index'
p18
(dp19
g13
I3
sg12
I2
sg10
I0
sg11
I1
sg15
I5
sg14
I4
sg16
I6
ssS'words'
p20
(lp21
sbsS'wordIndex'
p22
g2
(g3
g4
Ntp23
Rp24
(dp25
g8
(dp26
I0
S'he'
p27
sI1
S'visited'
p28
sI2
S'Barack'
p29
sI3
S'in'
p30
sI4
S'Hawaii'
p31
sI5
S'only'
p32
sI6
S'once,'
p33
sI7
S'1971.'
p34
sI8
S'Obama'
p35
sI9
S'Sr.'
p36
sI10
S'returned'
p37
sI11
S'to'
p38
sI12
S'Kenya'
p39
sI13
S'1964'
p40
sI14
S'where'
p41
sI15
S'remarried;'
p42
sI16
S'It'
p43
sI17
S'had'
p44
sI18
S'a'
p45
sI19
S'population'
p46
sI20
S'of'
p47
sI21
S'12,005,077'
p48
sI22
S'as'
p49
sI23
S'January'
p50
sI24
S'2014,'
p51
sI25
S'or'
p52
sI26
S'18.2'
p53
sI27
S'percent'
p54
sI28
S'the'
p55
sI29
S'France.'
p56
sI30
S'Abundances'
p57
sI31
S'heavier'
p58
sI32
S'inert'
p59
sI33
S'gases'
p60
sI34
S"Jupiter's"
p61
sI35
S'atmosphere'
p62
sI36
S'are'
p63
sI37
S'about'
p64
sI38
S'two'
p65
sI39
S'three'
p66
sI40
S'times'
p67
sI41
S'that'
p68
sI42
S'Sun.'
p69
sI43
S'The'
p70
sI44
S'uncertainty'
p71
sI45
S'models'
p72
sI46
S'is'
p73
sI47
S'tied'
p74
sI48
S'error'
p75
sI49
S'margin'
p76
sI50
S'hitherto'
p77
sI51
S'measured'
p78
sI52
S'parameters.'
p79
sI53
S'A'
p80
sI54
S'succession'
p81
sI55
S'revolutionary'
p82
sI56
S'factions'
p83
sI57
S'ruled'
p84
sI58
S'Paris'
p85
sI59
S'until'
p86
sI60
S'9'
p87
sI61
S'November'
p88
sI62
S'1799'
p89
sI63
S'(coup'
p90
sI64
S"d'\xc3\xa9tat"
p91
sI65
S'du'
p92
sI66
S'18'
p93
sI67
S'brumaire),'
p94
sI68
S'when'
p95
sI69
S'Napol\xc3\xa9on'
p96
sI70
S'Bonaparte'
p97
sI71
S'seized'
p98
sI72
S'power'
p99
sI73
S'First'
p100
sI74
S'Consul.'
p101
sI75
S'As'
p102
sI76
S'result,'
p103
sI77
S'Jupiter'
p104
sI78
S'thought'
p105
sI79
S'have'
p106
sI80
S'large'
p107
sI81
S'diameter'
p108
sI82
S'planet'
p109
sI83
S'its'
p110
sI84
S'composition'
p111
sI85
S'and'
p112
sI86
S'evolutionary'
p113
sI87
S'history'
p114
sI88
S'can'
p115
sI89
S'achieve.'
p116
sI90
S'mass'
p117
sI91
S'2.5'
p118
sI92
S'all'
p119
sI93
S'other'
p120
sI94
S'planets'
p121
sI95
S'Solar'
p122
sI96
S'System'
p123
sI97
S'combined.'
p124
sI98
S'These'
p125
sI99
S'colorful'
p126
sI100
S'compounds,'
p127
sI101
S'known'
p128
sI102
S'chromophores,'
p129
sI103
S'mix'
p130
sI104
S'with'
p131
sI105
S'warmer,'
p132
sI106
S'lower'
p133
sI107
S'deck'
p134
sI108
S'clouds.'
p135
sI109
S'On'
p136
sI110
S'14'
p137
sI111
S'July,'
p138
sI112
S'mob'
p139
sI113
S'arsenal'
p140
sI114
S'at'
p141
sI115
S'Invalides,'
p142
sI116
S'acquiring'
p143
sI117
S'thousands'
p144
sI118
S'guns,'
p145
sI119
S'stormed'
p146
sI120
S'Bastille,'
p147
sI121
S'symbol'
p148
sI122
S'royal'
p149
sI123
S'authority.'
p150
sI124
S'At'
p151
sI125
S'beginning'
p152
sI126
S'century,'
p153
sI127
S'artists'
p154
sI128
S'from'
p155
sI129
S'around'
p156
sI130
S'world,'
p157
sI131
S'including'
p158
sI132
S'Picasso,'
p159
sI133
S'Modigliani'
p160
sI134
S'Matisse'
p161
sI135
S'made'
p162
sI136
S'their'
p163
sI137
S'home;'
p164
sI138
S'Supporters'
p165
sI139
S'government'
p166
sI140
S'won'
p167
sI141
S'June'
p168
sI142
S'elections'
p169
sI143
S'by'
p170
sI144
S'majority.'
p171
sI145
S'During'
p172
sI146
S'his'
p173
sI147
S'first'
p174
sI148
S'years'
p175
sI149
S'office,'
p176
sI150
S'signed'
p177
sI151
S'into'
p178
sI152
S'law'
p179
sI153
S'economic'
p180
sI154
S'stimulus'
p181
sI155
S'legislation'
p182
sI156
S'response'
p183
sI157
S'Great'
p184
sI158
S'Recession'
p185
sI159
S'form'
p186
sI160
S'American'
p187
sI161
S'Recovery'
p188
sI162
S'Reinvestment'
p189
sI163
S'Act'
p190
sI164
S'2009'
p191
sI165
S'Tax'
p192
sI166
S'Relief,'
p193
sI167
S'Unemployment'
p194
sI168
S'Insurance'
p195
sI169
S'Reauthorization,'
p196
sI170
S'Job'
p197
sI171
S'Creation'
p198
sI172
S'2010.'
p199
sI173
S'Future'
p200
sI174
S'targets'
p201
sI175
S'for'
p202
sI176
S'exploration'
p203
sI177
S'Jovian'
p204
sI178
S'system'
p205
sI179
S'include'
p206
sI180
S'possible'
p207
sI181
S'ice-covered'
p208
sI182
S'liquid'
p209
sI183
S'ocean'
p210
sI184
S'on'
p211
sI185
S'moon'
p212
sI186
S'Europa.'
p213
sI187
S'When'
p214
sI188
S'viewed'
p215
sI189
S'Earth,'
p216
sI190
S'reach'
p217
sI191
S'an'
p218
sI192
S'apparent'
p219
sI193
S'magnitude'
p220
sI194
S'\xe2\x88\x922.94,'
p221
sI195
S'bright'
p222
sI196
S'enough'
p223
sI197
S'cast'
p224
sI198
S'shadows,'
p225
sI199
S'making'
p226
sI200
S'it'
p227
sI201
S'average'
p228
sI202
S'third-brightest'
p229
sI203
S'object'
p230
sI204
S'night'
p231
sI205
S'sky'
p232
sI206
S'after'
p233
sI207
S'Moon'
p234
sI208
S'Venus.'
p235
sI209
S'atmospheric'
p236
sI210
S'proportions'
p237
sI211
S'hydrogen'
p238
sI212
S'helium'
p239
sI213
S'close'
p240
sI214
S'theoretical'
p241
sI215
S'primordial'
p242
sI216
S'solar'
p243
sI217
S'nebula.'
p244
sI218
S'General'
p245
sI219
S'Charles'
p246
sI220
S'de'
p247
sI221
S'Gaulle'
p248
sI222
S'led'
p249
sI223
S'huge'
p250
sI224
S'emotional'
p251
sI225
S'crowd'
p252
sI226
S'down'
p253
sI227
S'Champs'
p254
sI228
S'\xc3\x89lys\xc3\xa9es'
p255
sI229
S'towards'
p256
sI230
S'Notre'
p257
sI231
S'Dame'
p258
sI232
S'Paris,'
p259
sI233
S'rousing'
p260
sI234
S'speech'
p261
sI235
S'H\xc3\xb4tel'
p262
sI236
S'Ville.'
p263
sI237
S'Most'
p264
sI238
S"France's"
p265
sI239
S'major'
p266
sI240
S'universities'
p267
sI241
S'grandes'
p268
sI242
S'\xc3\xa9coles'
p269
sI243
S'located'
p270
sI244
S'newspapers,'
p271
sI245
S'Le'
p272
sI246
S'Monde,'
p273
sI247
S'Figaro,'
p274
sI248
S'Lib\xc3\xa9ration.'
p275
sI249
S'Earth'
p276
sI250
S'neighbor'
p277
sI251
S'may'
p278
sI252
S'formed'
p279
sI253
S'fragments'
p280
sI254
S'collisions'
p281
sI255
S'destroyed'
p282
sI256
S'those'
p283
sI257
S'super-Earths'
p284
sI258
S'near'
p285
sI259
S'electrical'
p286
sI260
S'discharges'
p287
sI261
S'be'
p288
sI262
S'up'
p289
sI263
S'thousand'
p290
sI264
S'powerful'
p291
sI265
S'lightning'
p292
sI266
S'Earth.'
p293
sI267
S'was'
p294
sI268
S'centre'
p295
sI269
S'explosion'
p296
sI270
S'philosophic'
p297
sI271
S'scientific'
p298
sI272
S'activity'
p299
sI273
S'Age'
p300
sI274
S'Enlightenment.'
p301
sI275
S'Hussein'
p302
sI276
S'II'
p303
sI277
S'44th'
p304
sI278
S'current'
p305
sI279
S'President'
p306
sI280
S'United'
p307
sI281
S'States,'
p308
sI282
S'African'
p309
sI283
S'hold'
p310
sI284
S'office.'
p311
sI285
S'radius'
p312
sI286
S'1/10'
p313
sI287
S'Sun,'
p314
sI288
S'0.001'
p315
sI289
S'so'
p316
sI290
S'density'
p317
sI291
S'bodies'
p318
sI292
S'similar.'
p319
sI293
S'World'
p320
sI294
S'War,'
p321
sI295
S'sometimes'
p322
sI296
S'found'
p323
sI297
S'itself'
p324
sI298
S'front'
p325
sI299
S'line;'
p326
sI300
S'banking'
p327
sI301
S'financial'
p328
sI302
S'France,'
p329
sI303
S'contains'
p330
sI304
S'headquarters'
p331
sI305
S'30'
p332
sI306
S'companies'
p333
sI307
S'Fortune'
p334
sI308
S'Global'
p335
sI309
S'500.'
p336
sI310
S'In'
p337
sI311
S'1950s'
p338
sI312
S'1960s,'
p339
sI313
S'became'
p340
sI314
S'one'
p341
sI315
S'Algerian'
p342
sI316
S'War'
p343
sI317
S'independence;'
p344
sI318
S'interior'
p345
sI319
S'denser'
p346
sI320
S'materials,'
p347
sI321
S'such'
p348
sI322
S'distribution'
p349
sI323
S'roughly'
p350
sI324
S'71%'
p351
sI325
S'hydrogen,'
p352
sI326
S'24%'
p353
sI327
S'5%'
p354
sI328
S'elements'
p355
sI329
S'mass.'
p356
sI330
S'There'
p357
sI331
S'also'
p358
sI332
S'thin'
p359
sI333
S'layer'
p360
sI334
S'water'
p361
sI335
S'clouds'
p362
sI336
S'underlying'
p363
sI337
S'ammonia'
p364
sI338
S'layer,'
p365
sI339
S'evidenced'
p366
sI340
S'flashes'
p367
sI341
S'detected'
p368
sI342
S'Jupiter.'
p369
sI343
S'Situated'
p370
sI344
S'Seine'
p371
sI345
S'River,'
p372
sI346
S'north'
p373
sI347
S'country,'
p374
sI348
S'\xc3\x8ele-de-France'
p375
sI349
S'region,'
p376
sI350
S'r\xc3\xa9gion'
p377
sI351
S'parisienne,'
p378
sI352
S'"Paris'
p379
sI353
S'Region".'
p380
sI354
S'Other'
p381
sI355
S'domestic'
p382
sI356
S'initiatives'
p383
sI357
S'term'
p384
sI358
S'included'
p385
sI359
S'Patient'
p386
sI360
S'Protection'
p387
sI361
S'Affordable'
p388
sI362
S'Care'
p389
sI363
S'Act,'
p390
sI364
S'often'
p391
sI365
S'referred'
p392
sI366
S'"Obamacare";'
p393
sI367
S'Dodd\xe2\x80\x93Frank'
p394
sI368
S'Wall'
p395
sI369
S'Street'
p396
sI370
S'Reform'
p397
sI371
S'Consumer'
p398
sI372
S'Act;'
p399
sI373
S"Don't"
p400
sI374
S'Ask,'
p401
sI375
S'Tell'
p402
sI376
S'Repeal'
p403
sI377
S'Above'
p404
sI378
S'metallic'
p405
sI379
S'lies'
p406
sI380
S'transparent'
p407
sI381
S'hydrogen.'
p408
sI382
S'Between'
p409
sI383
S'1640'
p410
sI384
S'1789,'
p411
sI385
S'grew'
p412
sI386
S'400,000'
p413
sI387
S'600,000.'
p414
sI388
S'zones'
p415
sI389
S'been'
p416
sI390
S'observed'
p417
sI391
S'vary'
p418
sI392
S'width,'
p419
sI393
S'color'
p420
sI394
S'intensity'
p421
sI395
S'year'
p422
sI396
S'year,'
p423
sI397
S'but'
p424
sI398
S'they'
p425
sI399
S'remained'
p426
sI400
S'sufficiently'
p427
sI401
S'stable'
p428
sI402
S'astronomers'
p429
sI403
S'give'
p430
sI404
S'them'
p431
sI405
S'identifying'
p432
sI406
S'designations.'
p433
sI407
S'perpetually'
p434
sI408
S'covered'
p435
sI409
S'composed'
p436
sI410
S'crystals'
p437
sI411
S'possibly'
p438
sI412
S'ammonium'
p439
sI413
S'hydrosulfide.'
p440
sI414
S'Fortification'
p441
sI415
S'Ile'
p442
sI416
S'France'
p443
sI417
S'failed'
p444
sI418
S'prevent'
p445
sI419
S'sacking'
p446
sI420
S'Vikings'
p447
sI421
S'845'
p448
sI422
S"Paris's"
p449
sI423
S'strategic'
p450
sI424
S'importance'
p451
sI425
S'established'
p452
sI426
S'successful'
p453
sI427
S'defence'
p454
sI428
S'Siege'
p455
sI429
S'Paris.'
p456
sI430
S'thunderstorms'
p457
sI431
S'driven'
p458
sI432
S'heat'
p459
sI433
S'rising'
p460
sI434
S'interior.'
p461
sI435
S'Jupiter,'
p462
sI436
S'1.326'
p463
sI437
S'g/cm3,'
p464
sI438
S'second'
p465
sI439
S'highest'
p466
sI440
S'giant'
p467
sI441
S'planets,'
p468
sI442
S'than'
p469
sI443
S'four'
p470
sI444
S'terrestrial'
p471
sI445
S'planets.'
p472
sI446
S'Tour'
p473
sI447
S'Maine'
p474
sI448
S'Montparnasse,'
p475
sI449
S'tallest'
p476
sI450
S'building'
p477
sI451
S'city'
p478
sI452
S'57'
p479
sI453
S'storeys'
p480
sI454
S'210'
p481
sI455
S'metres'
p482
sI456
S'high,'
p483
sI457
S'built'
p484
sI458
S'between'
p485
sI459
S'1969'
p486
sI460
S'1973.'
p487
sI461
S'has'
p488
sI462
S'since'
p489
sI463
S'increased'
p490
sI464
S'changed'
p491
sI465
S'white'
p492
sI466
S'red.'
p493
sI467
S'One'
p494
sI468
S"area's"
p495
sI469
S'north-south'
p496
sI470
S'trade'
p497
sI471
S'routes'
p498
sI472
S'crossed'
p499
sI473
S'\xc3\xaele'
p500
sI474
S'la'
p501
sI475
S'Cit\xc3\xa9.'
p502
sI476
S'He'
p503
sI477
S'five'
p504
sI478
S'new'
p505
sI479
S'bridges,'
p506
sI480
S'chapel'
p507
sI481
S'College'
p508
sI482
S'Sorbonne,'
p509
sI483
S'palace'
p510
sI484
S'himself,'
p511
sI485
S'Palais'
p512
sI486
S'Cardinal,'
p513
sI487
S'which'
p514
sI488
S'bequeathed'
p515
sI489
S'Louis'
p516
sI490
S'XIII,'
p517
sI491
S'became,'
p518
sI492
S'own'
p519
sI493
S'death'
p520
sI494
S'1642,'
p521
sI495
S'Palais-Royal.'
p522
sI496
S'rings'
p523
sI497
S'appear'
p524
sI498
S'dust,'
p525
sI499
S'rather'
p526
sI500
S'ice'
p527
sI501
S"Saturn's"
p528
sI502
S'rings.'
p529
sI503
S'Restoration,'
p530
sI504
S'bridges'
p531
sI505
S'squares'
p532
sI506
S'were'
p533
sI507
S'pre-Revolution'
p534
sI508
S'names,'
p535
sI509
S'July'
p536
sI510
S'Revolution'
p537
sI511
S'1830'
p538
sI512
S'(commemorated'
p539
sI513
S'Column'
p540
sI514
S'Place'
p541
sI515
S'Bastille),'
p542
sI516
S'brought'
p543
sI517
S'constitutional'
p544
sI518
S'monarch,'
p545
sI519
S'Philippe'
p546
sI520
S'I,'
p547
sI521
S'power.'
p548
sI522
S'capital'
p549
sI523
S'continental'
p550
sI524
S'Europe,'
p551
sI525
S'primary'
p552
sI526
S'European'
p553
sI527
S'book'
p554
sI528
S'publishing,'
p555
sI529
S'fashion,'
p556
sI530
S'manufacture'
p557
sI531
S'fine'
p558
sI532
S'furniture'
p559
sI533
S'luxury'
p560
sI534
S'goods.'
p561
sI535
S'1889'
p562
sI536
S'Universal'
p563
sI537
S'Exposition,'
p564
sI538
S'held'
p565
sI539
S'mark'
p566
sI540
S'centennial'
p567
sI541
S'French'
p568
sI542
S'featured'
p569
sI543
S'Eiffel'
p570
sI544
S'Tower.'
p571
sI545
S'property'
p572
sI546
S'aristocracy'
p573
sI547
S'church'
p574
sI548
S'nationalised,'
p575
sI549
S"city's"
p576
sI550
S'churches'
p577
sI551
S'closed,'
p578
sI552
S'sold'
p579
sI553
S'demolished.'
p580
sI554
S'This'
p581
sI555
S'process'
p582
sI556
S'causes'
p583
sI557
S'shrink'
p584
sI558
S'2'
p585
sI559
S'cm'
p586
sI560
S'each'
p587
sI561
S'year.'
p588
sI562
S'Surrounding'
p589
sI563
S'faint'
p590
sI564
S'planetary'
p591
sI565
S'ring'
p592
sI566
S'magnetosphere.'
p593
sI567
S'surface'
p594
sI568
S'pressure'
p595
sI569
S'level'
p596
sI570
S'10'
p597
sI571
S'bars,'
p598
sI572
S'temperature'
p599
sI573
S'340K.'
p600
sI574
S'particularly'
p601
sI575
S'twice-yearly'
p602
sI576
S'Fashion'
p603
sI577
S'Week,'
p604
sI578
S'haute'
p605
sI579
S'cuisine,'
p606
sI580
S'three-star'
p607
sI581
S'restaurants.'
p608
sI582
S'Christianity'
p609
sI583
S'introduced'
p610
sI584
S'middle'
p611
sI585
S'3rd'
p612
sI586
S'century'
p613
sI587
S'AD.'
p614
sI588
S'highly'
p615
sI589
S'controversial,'
p616
sI590
S'remains'
p617
sI591
S'skyscraper.'
p618
sI592
S'core'
p619
sI593
S'now'
p620
sI594
S'entirely'
p621
sI595
S'absent,'
p622
sI596
S'gravitational'
p623
sI597
S'measurements'
p624
sI598
S'not'
p625
sI599
S'yet'
p626
sI600
S'precise'
p627
sI601
S'rule'
p628
sI602
S'possibility'
p629
sI603
S'out'
p630
sI604
S'entirely.'
p631
sI605
S'Region'
p632
sI606
S'covers'
p633
sI607
S'12,012'
p634
sI608
S'square'
p635
sI609
S'kilometres,'
p636
sI610
S'regional'
p637
sI611
S'council'
p638
sI612
S'president.'
p639
sI613
S'neglected'
p640
sI614
S'decades.'
p641
sI615
S'bombed'
p642
sI616
S'Zeppelins'
p643
sI617
S'shelled'
p644
sI618
S'German'
p645
sI619
S'long-range'
p646
sI620
S'guns.'
p647
sI621
S'18th'
p648
sI622
S'stage'
p649
sI623
S'Revolution,'
p650
sI624
S'important'
p651
sI625
S'finance,'
p652
sI626
S'commerce,'
p653
sI627
S'science,'
p654
sI628
S'arts,'
p655
sI629
S'position'
p656
sI630
S'still'
p657
sI631
S'retains'
p658
sI632
S'today.'
p659
sI633
S'upper'
p660
sI634
S'88\xe2\x80\x9392%'
p661
sI635
S'8\xe2\x80\x9312%'
p662
sI636
S'volume'
p663
sI637
S'gas'
p664
sI638
S'molecules.'
p665
sI639
S'oval'
p666
sI640
S'rotates'
p667
sI641
S'counterclockwise,'
p668
sI642
S'period'
p669
sI643
S'six'
p670
sI644
S'days.'
p671
sI645
S'Thousands'
p672
sI646
S'Parisian'
p673
sI647
S'blue-collar'
p674
sI648
S'workers'
p675
sI649
S'joined'
p676
sI650
S'students,'
p677
sI651
S'movement'
p678
sI652
S'two-week'
p679
sI653
S'general'
p680
sI654
S'strike.'
p681
sI655
S'Louis-Philippe'
p682
sI656
S'overthrown'
p683
sI657
S'popular'
p684
sI658
S'uprising'
p685
sI659
S'streets'
p686
sI660
S'1848.'
p687
sI661
S'Juno'
p688
sI662
S'mission,'
p689
sI663
S'launched'
p690
sI664
S'August'
p691
sI665
S'2011,'
p692
sI666
S'expected'
p693
sI667
S'better'
p694
sI668
S'constrain'
p695
sI669
S'values'
p696
sI670
S'these'
p697
sI671
S'parameters,'
p698
sI672
S'thereby'
p699
sI673
S'make'
p700
sI674
S'progress'
p701
sI675
S'problem'
p702
sI676
S'core.'
p703
sI677
S'Assuming'
p704
sI678
S'did'
p705
sI679
S'exist,'
p706
sI680
S'shrunk'
p707
sI681
S'convection'
p708
sI682
S'currents'
p709
sI683
S'hot'
p710
sI684
S'mixed'
p711
sI685
S'molten'
p712
sI686
S'carried'
p713
sI687
S'contents'
p714
sI688
S'higher'
p715
sI689
S'levels'
p716
sI690
S'community'
p717
sI691
S'organizer'
p718
sI692
S'Chicago'
p719
sI693
S'before'
p720
sI694
S'earning'
p721
sI695
S'degree.'
p722
sI696
S'142,984'
p723
sI697
S'km'
p724
sI698
S'(88,846'
p725
sI699
S'mi)'
p726
sI700
S'equator.'
p727
sI701
S'recorded'
p728
sI702
S'traveled'
p729
sI703
S'several'
p730
sI704
S'relative'
p731
sI705
S'any'
p732
sI706
S'fixed'
p733
sI707
S'rotational'
p734
sI708
S'marker'
p735
sI709
S'below'
p736
sI710
S'it.'
p737
sI711
S'evidence'
p738
sI712
S'rocky'
p739
sI713
S'strung'
p740
sI714
S'along'
p741
sI715
S"Amalthea's"
p742
sI716
S'orbit'
p743
sI717
S'consist'
p744
sI718
S'collisional'
p745
sI719
S'debris'
p746
sI720
S'moon.'
p747
sI721
S'phase'
p748
sI722
S'transition'
p749
sI723
S'region'
p750
sI724
S'becomes'
p751
sI725
S'metallic,'
p752
sI726
S'believed'
p753
sI727
S'10,000K'
p754
sI728
S'200'
p755
sI729
S'GPa.'
p756
sI730
S'Wind'
p757
sI731
S'speeds'
p758
sI732
S'100'
p759
sI733
S'm/s'
p760
sI734
S'common'
p761
sI735
S'zonal'
p762
sI736
S'jets.'
p763
sI737
S'laboratory'
p764
sI738
S'Naturalism'
p765
sI739
S'(\xc3\x89mile'
p766
sI740
S'Zola)'
p767
sI741
S'Symbolism'
p768
sI742
S'(Charles'
p769
sI743
S'Baudelaire'
p770
sI744
S'Paul'
p771
sI745
S'Verlaine),'
p772
sI746
S'Impressionism'
p773
sI747
S'art'
p774
sI748
S'(Courbet,'
p775
sI749
S'Manet,'
p776
sI750
S'Monet,'
p777
sI751
S'Renoir.)'
p778
sI752
S'last'
p779
sI753
S'wars,'
p780
sI754
S'eighth'
p781
sI755
S'one,'
p782
sI756
S'ended'
p783
sI757
S'1594,'
p784
sI758
S'Henri'
p785
sI759
S'IV'
p786
sI760
S'converted'
p787
sI761
S'Catholicism'
p788
sI762
S'finally'
p789
sI763
S'able'
p790
sI764
S'enter'
p791
sI765
S'king.'
p792
sI766
S'served'
p793
sI767
S'terms'
p794
sI768
S'representing'
p795
sI769
S'13th'
p796
sI770
S'District'
p797
sI771
S'Illinois'
p798
sI772
S'Senate'
p799
sI773
S'1997'
p800
sI774
S'2004,'
p801
sI775
S'running'
p802
sI776
S'unsuccessfully'
p803
sI777
S'States'
p804
sI778
S'House'
p805
sI779
S'Representatives'
p806
sI780
S'2000.'
p807
sI781
S'For'
p808
sI782
S'small'
p809
sI783
S'changes'
p810
sI784
S'mass,'
p811
sI785
S'would'
p812
sI786
S'change'
p813
sI787
S'appreciably,'
p814
sI788
S'above'
p815
sI789
S'500'
p816
sI790
S'M\xe2\x8a\x95'
p817
sI791
S'(1.6'
p818
sI792
S'masses)'
p819
sI793
S'become'
p820
sI794
S'much'
p821
sI795
S'more'
p822
sI796
S'compressed'
p823
sI797
S'under'
p824
sI798
S'decrease'
p825
sI799
S'despite'
p826
sI800
S'increasing'
p827
sI801
S'amount'
p828
sI802
S'matter.'
p829
sI803
S'XVI'
p830
sI804
S'family'
p831
sI805
S'virtual'
p832
sI806
S'prisoners'
p833
sI807
S'within'
p834
sI808
S'Tuileries'
p835
sI809
S'Palace.'
p836
sI810
S'25'
p837
sI811
S'1944,'
p838
sI812
S'liberated'
p839
sI813
S'2nd'
p840
sI814
S'Armoured'
p841
sI815
S'Division'
p842
sI816
S'4th'
p843
sI817
S'Infantry'
p844
sI818
S'Army.'
p845
sI819
S'cells'
p846
sI820
S'crystallizing'
p847
sI821
S'masks'
p848
sI822
S'view.'
p849
sI823
S'His'
p850
sI824
S'mother,'
p851
sI825
S'Stanley'
p852
sI826
S'Ann'
p853
sI827
S'Dunham,'
p854
sI828
S'born'
p855
sI829
S'Wichita,'
p856
sI830
S'Kansas,'
p857
sI831
S'mostly'
p858
sI832
S'English'
p859
sI833
S'ancestry.'
p860
sI834
S'anti-independence'
p861
sI835
S'Organisation'
p862
sI836
S"l'arm\xc3\xa9e"
p863
sI837
S'secr\xc3\xa8te,'
p864
sI838
S'part,'
p865
sI839
S'series'
p866
sI840
S'bombings'
p867
sI841
S'throughout'
p868
sI842
S'1961'
p869
sI843
S'1962.'
p870
sI844
S'boulevard,'
p871
sI845
S'Champs-\xc3\x89lys\xc3\xa9es,'
p872
sI846
S'extended'
p873
sI847
S'west'
p874
sI848
S'\xc3\x89toile,'
p875
sI849
S'while'
p876
sI850
S'working-class'
p877
sI851
S'neighbourhood'
p878
sI852
S'Faubourg'
p879
sI853
S'Saint-Antoine'
p880
sI854
S'eastern'
p881
sI855
S'site'
p882
sI856
S'crowded'
p883
sI857
S'poor'
p884
sI858
S'migrants'
p885
sI859
S'regions'
p886
sI860
S'Basilica'
p887
sI861
S'Saint-Denis'
p888
sI862
S'there'
p889
sI863
S'burial'
p890
sI864
S'place'
p891
sI865
S'Kings.'
p892
sI866
S'inside'
p893
sI867
S'increase'
p894
sI868
S'steadily'
p895
sI869
S'toward'
p896
sI870
S'core,'
p897
sI871
S'due'
p898
sI872
S'Kelvin\xe2\x80\x93Helmholtz'
p899
sI873
S'mechanism.'
p900
sI874
S'Astronomers'
p901
sI875
S'discovered'
p902
sI876
S'nearly'
p903
sI877
S'systems'
p904
sI878
S'multiple'
p905
sI879
S'typically'
p906
sI880
S'few'
p907
sI881
S'masses'
p908
sI882
S'greater'
p909
sI883
S"Earth's"
p910
sI884
S'(super-Earths),'
p911
sI885
S'orbiting'
p912
sI886
S'closer'
p913
sI887
S'star'
p914
sI888
S'Mercury'
p915
sI889
S'Jupiter-like'
p916
sI890
S'giants'
p917
sI891
S'star.'
p918
sI892
S'fifth'
p919
sI893
S'Sun'
p920
sI894
S'largest'
p921
sI895
S'System.'
p922
sI896
S'Com\xc3\xa9die-Fran\xc3\xa7aise,'
p923
sI897
S'Academy'
p924
sI898
S'Painting,'
p925
sI899
S'Sciences'
p926
sI900
S'founded'
p927
sI901
S'city.'
p928
sI902
S'convenient'
p929
sI903
S'treat'
p930
sI904
S'extending'
p931
sI905
S'downward'
p932
sI906
S'cloud'
p933
sI907
S'depth'
p934
sI908
S'1,000'
p935
sI909
S'km,'
p936
sI910
S'deeper'
p937
sI911
S'layers.'
p938
sI912
S'Images'
p939
sI913
S'Hubble'
p940
sI914
S'Space'
p941
sI915
S'Telescope'
p942
sI916
S'shown'
p943
sI917
S'many'
p944
sI918
S'red'
p945
sI919
S'spots'
p946
sI920
S'adjacent'
p947
sI921
S'Red'
p948
sI922
S'Spot.'
p949
sI923
S'most'
p950
sI924
S'recent'
p951
sI925
S'probe'
p952
sI926
S'visit'
p953
sI927
S'Pluto-bound'
p954
sI928
S'New'
p955
sI929
S'Horizons'
p956
sI930
S'spacecraft'
p957
sI931
S'late'
p958
sI932
S'February'
p959
sI933
S'2007.'
p960
sI934
S'low'
p961
sI935
S'axial'
p962
sI936
S'tilt'
p963
sI937
S'means'
p964
sI938
S'poles'
p965
sI939
S'constantly'
p966
sI940
S'receive'
p967
sI941
S'less'
p968
sI942
S'radiation'
p969
sI943
S"planet's"
p970
sI944
S'equatorial'
p971
sI945
S'region.'
p972
sI946
S'1975,'
p973
sI947
S'National'
p974
sI948
S'Assembly'
p975
sI949
S'status'
p976
sI950
S'cities'
p977
sI951
S'and,'
p978
sI952
S'March'
p979
sI953
S'1977,'
p980
sI954
S'Jacques'
p981
sI955
S'Chirac'
p982
sI956
S'elected'
p983
sI957
S'mayor'
p984
sI958
S'1793.'
p985
sI959
S'prosperous'
p986
sI960
S'forum,'
p987
sI961
S'baths,'
p988
sI962
S'temples,'
p989
sI963
S'theatres,'
p990
sI964
S'amphitheatre.'
p991
sI965
S'Commune'
p992
sI966
S'months,'
p993
sI967
S'harshly'
p994
sI968
S'suppressed'
p995
sI969
S'army'
p996
sI970
S'during'
p997
sI971
S'"Bloody'
p998
sI972
S'Week"'
p999
sI973
S'end'
p1000
sI974
S'May'
p1001
sI975
S'1871.'
p1002
sI976
S'Through'
p1003
sI977
S'infrared'
p1004
sI978
S'ultraviolet'
p1005
sI979
S'measurements,'
p1006
sI980
S'trace'
p1007
sI981
S'amounts'
p1008
sI982
S'benzene'
p1009
sI983
S'hydrocarbons'
p1010
sI984
S'found.'
p1011
sI985
S'railway'
p1012
sI986
S'line'
p1013
sI987
S'opened'
p1014
sI988
S'1837,'
p1015
sI989
S'massive'
p1016
sI990
S'migration'
p1017
sI991
S'provinces'
p1018
sI992
S'depletion'
p1019
sI993
S'result'
p1020
sI994
S'precipitation'
p1021
sI995
S'planet.'
p1022
sI996
S'Franco-Prussian'
p1023
sI997
S'(1870\xe2\x80\x931871),'
p1024
sI998
S'besieged'
p1025
sI999
S'Prussian'
p1026
sI1000
S'army.'
p1027
sI1001
S'Gallo-Roman'
p1028
sI1002
S'town'
p1029
sI1003
S'originally'
p1030
sI1004
S'called'
p1031
sI1005
S'Lutetia.'
p1032
sI1006
S"Obama's"
p1033
sI1007
S'parents'
p1034
sI1008
S'met'
p1035
sI1009
S'1960'
p1036
sI1010
S'Russian'
p1037
sI1011
S'language'
p1038
sI1012
S'class'
p1039
sI1013
S'University'
p1040
sI1014
S'Hawai\xca\xbbi'
p1041
sI1015
S'M\xc4\x81noa,'
p1042
sI1016
S'father'
p1043
sI1017
S'foreign'
p1044
sI1018
S'student'
p1045
sI1019
S'scholarship.'
p1046
sI1020
S'worked'
p1047
sI1021
S'civil'
p1048
sI1022
S'rights'
p1049
sI1023
S'attorney'
p1050
sI1024
S'taught'
p1051
sI1025
S'Law'
p1052
sI1026
S'School'
p1053
sI1027
S'1992'
p1054
sI1028
S'2004.'
p1055
sI1029
S'1961,'
p1056
sI1030
S'pro-independence'
p1057
sI1031
S'FLN'
p1058
sI1032
S'targeted'
p1059
sI1033
S'killed'
p1060
sI1034
S'11'
p1061
sI1035
S'policemen,'
p1062
sI1036
S'leading'
p1063
sI1037
S'imposition'
p1064
sI1038
S'curfew'
p1065
sI1039
S'Muslims'
p1066
sI1040
S'Algeria.'
p1067
sI1041
S"Spot's"
p1068
sI1042
S'dimensions'
p1069
sI1043
S'24\xe2\x80\x9340,000'
p1070
sI1044
S'\xc3\x97'
p1071
sI1045
S'12\xe2\x80\x9314,000'
p1072
sI1046
S'km.'
p1073
sI1047
S'Such'
p1074
sI1048
S'storms'
p1075
sI1049
S'little'
p1076
sI1050
S'hours'
p1077
sI1051
S'stretch'
p1078
sI1052
S'centuries.'
p1079
sI1053
S'dropped'
p1080
sI1054
S'2,850,000'
p1081
sI1055
S'1954'
p1082
sI1056
S'2,152,000'
p1083
sI1057
S'1990,'
p1084
sI1058
S'middle-class'
p1085
sI1059
S'families'
p1086
sI1060
S'moved'
p1087
sI1061
S'suburbs.'
p1088
sI1062
S'least'
p1089
sI1063
S'67'
p1090
sI1064
S'moons,'
p1091
sI1065
S'Galilean'
p1092
sI1066
S'moons'
p1093
sI1067
S'Galileo'
p1094
sI1068
S'Galilei'
p1095
sI1069
S'1610.'
p1096
sI1070
S'methane,'
p1097
sI1071
S'vapor,'
p1098
sI1072
S'ammonia,'
p1099
sI1073
S'silicon-based'
p1100
sI1074
S'compounds.'
p1101
sI1075
S'Because'
p1102
sI1076
S'atom'
p1103
sI1077
S'atom,'
p1104
sI1078
S'described'
p1105
sI1079
S'proportion'
p1106
sI1080
S'contributed'
p1107
sI1081
S'different'
p1108
sI1082
S'atoms.'
p1109
sI1083
S'policy,'
p1110
sI1084
S'ordered'
p1111
sI1085
S'U.S.'
p1112
sI1086
S'military'
p1113
sI1087
S'involvement'
p1114
sI1088
S'Iraq'
p1115
sI1089
S'gains'
p1116
sI1090
S'Islamic'
p1117
sI1091
S'State'
p1118
sI1092
S'2011'
p1119
sI1093
S'withdrawal'
p1120
sI1094
S'Iraq,'
p1121
sI1095
S'continued'
p1122
sI1096
S'ending'
p1123
sI1097
S'combat'
p1124
sI1098
S'operations'
p1125
sI1099
S'Afghanistan,'
p1126
sI1100
S'sought'
p1127
sI1101
S'normalize'
p1128
sI1102
S'relations'
p1129
sI1103
S'Cuba.'
p1130
sI1104
S'16\xe2\x80\x9317'
p1131
sI1105
S'1942,'
p1132
sI1106
S'following'
p1133
sI1107
S'orders,'
p1134
sI1108
S'police'
p1135
sI1109
S'gendarmes'
p1136
sI1110
S'arrested'
p1137
sI1111
S'12,884'
p1138
sI1112
S'Jews,'
p1139
sI1113
S'4,115'
p1140
sI1114
S'children,'
p1141
sI1115
S'confined'
p1142
sI1116
S'days'
p1143
sI1117
S'Vel'
p1144
sI1118
S"d'Hiv"
p1145
sI1119
S'(V\xc3\xa9lodrome'
p1146
sI1120
S"d'Hiver),"
p1147
sI1121
S'transported'
p1148
sI1122
S'train'
p1149
sI1123
S'extermination'
p1150
sI1124
S'camp'
p1151
sI1125
S'Auschwitz.'
p1152
sI1126
S'Uranus'
p1153
sI1127
S'Neptune'
p1154
sI1128
S'giants.'
p1155
sI1129
S'lack'
p1156
sI1130
S'entry'
p1157
sI1131
S'probes,'
p1158
sI1132
S'high-quality'
p1159
sI1133
S'abundance'
p1160
sI1134
S'numbers'
p1161
sI1135
S'lacking'
p1162
sI1136
S'outer'
p1163
sI1137
S'beyond'
p1164
sI1138
S'refused'
p1165
sI1139
S'renounce'
p1166
sI1140
S'faith,'
p1167
sI1141
S'beheaded'
p1168
sI1142
S'hill'
p1169
sI1143
S'Mountain'
p1170
sI1144
S'Martyrs,'
p1171
sI1145
S'eventually'
p1172
sI1146
S'Montmartre.'
p1173
sI1147
S'Hundred'
p1174
sI1148
S"Years'"
p1175
sI1149
S'Duke'
p1176
sI1150
S'Burgundy'
p1177
sI1151
S'force'
p1178
sI1152
S'hundred'
p1179
sI1153
S'soldiers'
p1180
sI1154
S'occupied'
p1181
sI1155
S'1420'
p1182
sI1156
S'1436.'
p1183
sI1157
S'Inhabitants'
p1184
sI1158
S'Parisians'
p1185
sI1159
S'Parisiens,'
p1186
sI1160
S'pejoratively'
p1187
sI1161
S'Parigots.'
p1188
sI1162
S'boundary'
p1189
sI1163
S'estimated'
p1190
sI1164
S'36,000K'
p1191
sI1165
S'3,000\xe2\x80\x934,500'
p1192
sI1166
S'According'
p1193
sI1167
S'tradition,'
p1194
sI1168
S'Saint'
p1195
sI1169
S'Denis,'
p1196
sI1170
S'Bishop'
p1197
sI1171
S'24'
p1198
sI1172
S'1572,'
p1199
sI1173
S'St.'
p1200
sI1174
S"Bartholomew's"
p1201
sI1175
S'Day'
p1202
sI1176
S'massacre,'
p1203
sI1177
S'Protestants'
p1204
sI1178
S'killed.'
p1205
sI1179
S'rapid'
p1206
sI1180
S'rotation,'
p1207
sI1181
S'shape'
p1208
sI1182
S'oblate'
p1209
sI1183
S'spheroid.'
p1210
sI1184
S'received'
p1211
sI1185
S'national'
p1212
sI1186
S'attention'
p1213
sI1187
S'campaign'
p1214
sI1188
S'represent'
p1215
sI1189
S'victory'
p1216
sI1190
S'Democratic'
p1217
sI1191
S'Party'
p1218
sI1192
S'primary,'
p1219
sI1193
S'keynote'
p1220
sI1194
S'address'
p1221
sI1195
S'Convention'
p1222
sI1196
S'election'
p1223
sI1197
S'November.'
p1224
sI1198
S'After'
p1225
sI1199
S'months'
p1226
sI1200
S'blockade,'
p1227
sI1201
S'hunger,'
p1228
sI1202
S'then'
p1229
sI1203
S'bombardment'
p1230
sI1204
S'Prussians,'
p1231
sI1205
S'forced'
p1232
sI1206
S'surrender'
p1233
sI1207
S'28'
p1234
sI1208
S'Based'
p1235
sI1209
S'spectroscopy,'
p1236
sI1210
S'Saturn'
p1237
sI1211
S'similar'
p1238
sI1212
S'relatively'
p1239
sI1213
S'helium.'
p1240
sI1214
S'Romans'
p1241
sI1215
S'conquered'
p1242
sI1216
S'basin'
p1243
sI1217
S'52'
p1244
sI1218
S'BC'
p1245
sI1219
S'island'
p1246
sI1220
S'garrison'
p1247
sI1221
S'camp,'
p1248
sI1222
S'began'
p1249
sI1223
S'settlement'
p1250
sI1224
S'permanent'
p1251
sI1225
S'way'
p1252
sI1226
S"Paris'"
p1253
sI1227
S'Left'
p1254
sI1228
S'Bank.'
p1255
sI1229
S'reelected'
p1256
sI1230
S'president'
p1257
sI1231
S'2012,'
p1258
sI1232
S'defeating'
p1259
sI1233
S'Republican'
p1260
sI1234
S'nominee'
p1261
sI1235
S'Mitt'
p1262
sI1236
S'Romney,'
p1263
sI1237
S'sworn'
p1264
sI1238
S'20,'
p1265
sI1239
S'2013.'
p1266
sI1240
S'To'
p1267
sI1241
S'show'
p1268
sI1242
S'safe'
p1269
sI1243
S'against'
p1270
sI1244
S'attack,'
p1271
sI1245
S'walls'
p1272
sI1246
S'demolished,'
p1273
sI1247
S'replacing'
p1274
sI1248
S'Grands'
p1275
sI1249
S'Boulevards.'
p1276
sI1250
S'additional'
p1277
sI1251
S'generated'
p1278
sI1252
S'Kelvin-Helmholtz'
p1279
sI1253
S'mechanism'
p1280
sI1254
S'through'
p1281
sI1255
S'contraction.'
p1282
sI1256
S'rail,'
p1283
sI1257
S'highway,'
p1284
sI1258
S'air-transport'
p1285
sI1259
S'hub,'
p1286
sI1260
S'international'
p1287
sI1261
S'airports'
p1288
sI1262
S'Paris-Charles'
p1289
sI1263
S'Paris-Orly.'
p1290
sI1264
S'material'
p1291
sI1265
S'veers'
p1292
sI1266
S'added'
p1293
sI1267
S'impacts.'
p1294
sI1268
S'Material'
p1295
sI1269
S'fall'
p1296
sI1270
S'back'
p1297
sI1271
S'pulled'
p1298
sI1272
S'because'
p1299
sI1273
S'strong'
p1300
sI1274
S'influence.'
p1301
sI1275
S'2014'
p1302
sI1276
S'22.4'
p1303
sI1277
S'million'
p1304
sI1278
S'visitors,'
p1305
sI1279
S"world's"
p1306
sI1280
S'top'
p1307
sI1281
S'tourist'
p1308
sI1282
S'destinations.'
p1309
sI1283
S'storm'
p1310
sI1284
S'visible'
p1311
sI1285
S'Earth-based'
p1312
sI1286
S'telescopes'
p1313
sI1287
S'aperture'
p1314
sI1288
S'12'
p1315
sI1289
S'larger.'
p1316
sI1290
S'elements,'
p1317
sI1291
S'like'
p1318
sI1292
S'lacks'
p1319
sI1293
S'well-defined'
p1320
sI1294
S'solid'
p1321
sI1295
S'surface.'
p1322
sI1296
S'City'
p1323
sI1297
S'area'
p1324
sI1298
S'105.4'
p1325
sI1299
S'kilometres'
p1326
sI1300
S'2,241,346'
p1327
sI1301
S'limits'
p1328
sI1302
S'2014.'
p1329
sI1303
S'caused'
p1330
sI1304
S"water's"
p1331
sI1305
S'polarity,'
p1332
sI1306
S'makes'
p1333
sI1307
S'capable'
p1334
sI1308
S'creating'
p1335
sI1309
S'charge'
p1336
sI1310
S'separation'
p1337
sI1311
S'needed'
p1338
sI1312
S'produce'
p1339
sI1313
S'lightning.'
p1340
sI1314
S'merchants'
p1341
sI1315
S'who'
p1342
sI1316
S'controlled'
p1343
sI1317
S'river'
p1344
sI1318
S'league'
p1345
sI1319
S'quickly'
p1346
sI1320
S'force.'
p1347
sI1321
S'successor,'
p1348
sI1322
S'Napoleon'
p1349
sI1323
S'III,'
p1350
sI1324
S'newly'
p1351
sI1325
S'appointed'
p1352
sI1326
S'prefect'
p1353
sI1327
S'Seine,'
p1354
sI1328
S'Georges-Eug\xc3\xa8ne'
p1355
sI1329
S'Haussmann,'
p1356
sI1330
S'gigantic'
p1357
sI1331
S'public'
p1358
sI1332
S'works'
p1359
sI1333
S'project'
p1360
sI1334
S'build'
p1361
sI1335
S'wide'
p1362
sI1336
S'boulevards,'
p1363
sI1337
S'opera'
p1364
sI1338
S'house,'
p1365
sI1339
S'central'
p1366
sI1340
S'market,'
p1367
sI1341
S'aqueducts,'
p1368
sI1342
S'sewers,'
p1369
sI1343
S'parks,'
p1370
sI1344
S'Bois'
p1371
sI1345
S'Boulogne'
p1372
sI1346
S'Vincennes.'
p1373
sI1347
S'Convection'
p1374
sI1348
S'transports'
p1375
sI1349
S'energy'
p1376
sI1350
S'poles,'
p1377
sI1351
S'balancing'
p1378
sI1352
S'temperatures'
p1379
sI1353
S'layer.'
p1380
sI1354
S'ancient'
p1381
sI1355
S'times.'
p1382
sI1356
S'moving'
p1383
sI1357
S'inner'
p1384
sI1358
S'allowed'
p1385
sI1359
S'formation'
p1386
sI1360
S'set'
p1387
sI1361
S'populated'
p1388
sI1362
S'GDP'
p1389
sI1363
S'\xe2\x82\xac612'
p1390
sI1364
S'billion'
p1391
sI1365
S'accounting'
p1392
sI1366
S'30.1'
p1393
sI1367
S'ranking'
p1394
sI1368
S'wealthiest'
p1395
sI1369
S'Europe.'
p1396
sI1370
S'50'
p1397
sI1371
S'deep,'
p1398
sI1372
S'consists'
p1399
sI1373
S'decks'
p1400
sI1374
S'80,000-seat'
p1401
sI1375
S'Stade'
p1402
sI1376
S'1998'
p1403
sI1377
S'FIFA'
p1404
sI1378
S'Cup,'
p1405
sI1379
S'Saint-Denis.'
p1406
sI1380
S'1860,'
p1407
sI1381
S'III'
p1408
sI1382
S'annexed'
p1409
sI1383
S'surrounding'
p1410
sI1384
S'towns'
p1411
sI1385
S'created'
p1412
sI1386
S'eight'
p1413
sI1387
S'arrondissements,'
p1414
sI1388
S'expanding'
p1415
sI1389
S'limits.'
p1416
sI1390
S'None'
p1417
sI1391
S'children'
p1418
sI1392
S'came'
p1419
sI1393
S'back.'
p1420
sI1394
S'1,321'
p1421
sI1395
S'Earths,'
p1422
sI1396
S'318'
p1423
sI1397
S'massive.'
p1424
sI1398
S'used'
p1425
sI1399
S'gravity'
p1426
sI1400
S'speed.'
p1427
sI1401
S'religious'
p1428
sI1402
S'shrine.'
p1429
sI1403
S'named'
p1430
sI1404
S'god'
p1431
sI1405
S'Although'
p1432
sI1406
S'need'
p1433
sI1407
S'75'
p1434
sI1408
S'fuse'
p1435
sI1409
S'star,'
p1436
sI1410
S'smallest'
p1437
sI1411
S'dwarf'
p1438
sI1412
S'larger'
p1439
sI1413
S'way,'
p1440
sI1414
S'Thebe'
p1441
sI1415
S'Amalthea'
p1442
sI1416
S'probably'
p1443
sI1417
S'distinct'
p1444
sI1418
S'components'
p1445
sI1419
S'dusty'
p1446
sI1420
S'gossamer'
p1447
sI1421
S'ring.'
p1448
sI1422
S'prominent'
p1449
sI1423
S'Spot,'
p1450
sI1424
S'existed'
p1451
sI1425
S'17th'
p1452
sI1426
S'seen'
p1453
sI1427
S'telescope.'
p1454
sI1428
S'most-populous'
p1455
sI1429
S'produced'
p1456
sI1430
S'total'
p1457
sI1431
S'receives.'
p1458
sI1432
S'orange'
p1459
sI1433
S'brown'
p1460
sI1434
S'coloration'
p1461
sI1435
S'upwelling'
p1462
sI1436
S'compounds'
p1463
sI1437
S'exposed'
p1464
sI1438
S'light'
p1465
sI1439
S'White'
p1466
sI1440
S'ovals'
p1467
sI1441
S'tend'
p1468
sI1442
S'cool'
p1469
sI1443
S'atmosphere.'
p1470
sI1444
S'coefficients'
p1471
sI1445
S'describe'
p1472
sI1446
S'moment,'
p1473
sI1447
S'radius,'
p1474
sI1448
S'1'
p1475
sI1449
S'bar'
p1476
sI1450
S'pressure.'
p1477
sI1451
S'Helium'
p1478
sI1452
S'depleted,'
p1479
sI1453
S'80%'
p1480
sI1454
S"Sun's"
p1481
sI1455
S'composition.'
p1482
sI1456
S'primarily'
p1483
sI1457
S'quarter'
p1484
sI1458
S'being'
p1485
sI1459
S'helium,'
p1486
sI1460
S'although'
p1487
sI1461
S'comprises'
p1488
sI1462
S'tenth'
p1489
sI1463
S'number'
p1490
sI1464
S'Beyond'
p1491
sI1465
S'this'
p1492
sI1466
S'basic'
p1493
sI1467
S'outline,'
p1494
sI1468
S'considerable'
p1495
sI1469
S'uncertainty.'
p1496
sI1470
S'Born'
p1497
sI1471
S'Honolulu,'
p1498
sI1472
S'Hawaii,'
p1499
sI1473
S'graduate'
p1500
sI1474
S'Columbia'
p1501
sI1475
S'Harvard'
p1502
sI1476
S'School,'
p1503
sI1477
S'Review.'
p1504
sI1478
S'contain'
p1505
sI1479
S'diameter.'
p1506
sI1480
S'appears'
p1507
sI1481
S'present'
p1508
sI1482
S'migration.'
p1509
sI1483
S'1997,'
p1510
sI1484
S'existence'
p1511
sI1485
S'suggested'
p1512
sI1486
S'indicating'
p1513
sI1487
S'45'
p1514
sI1488
S'4%\xe2\x80\x9314%'
p1515
sI1489
S'surrounded'
p1516
sI1490
S'dense'
p1517
sI1491
S'extends'
p1518
sI1492
S'outward'
p1519
sI1493
S'78%'
p1520
sI1494
S'further'
p1521
sI1495
S'shrinkage'
p1522
sI1496
S'continue'
p1523
sI1497
S'appreciable'
p1524
sI1498
S'stellar'
p1525
sI1499
S'ignition'
p1526
sI1500
S'achieved'
p1527
sI1501
S'high-mass'
p1528
sI1502
S'dwarfs'
p1529
sI1503
S'having'
p1530
sI1504
S'masses.'
p1531
sI1505
S'meeting'
p1532
sI1506
S'land'
p1533
sI1507
S'gradually'
p1534
sI1508
S'trading'
p1535
sI1509
S'centre.'
p1536
sI1510
S'best'
p1537
sI1511
S'feature'
p1538
sI1512
S'persistent'
p1539
sI1513
S'anticyclonic'
p1540
sI1514
S'22\xc2\xb0'
p1541
sI1515
S'south'
p1542
sI1516
S'Ganymede,'
p1543
sI1517
S'these,'
p1544
sI1518
S'Mercury.'
p1545
sI1519
S'no'
p1546
sI1520
S'surface,'
p1547
sI1521
S'base'
p1548
sI1522
S'usually'
p1549
sI1523
S'considered'
p1550
sI1524
S'point'
p1551
sI1525
S'equal'
p1552
sI1526
S'MPa,'
p1553
sI1527
S'ten'
p1554
sI1528
S'Clovis'
p1555
sI1529
S'Frank,'
p1556
sI1530
S'king'
p1557
sI1531
S'Merovingian'
p1558
sI1532
S'dynasty,'
p1559
sI1533
S'508.'
p1560
sI1534
S'2000,'
p1561
sI1535
S'southern'
p1562
sI1536
S'hemisphere'
p1563
sI1537
S'appearance'
p1564
sI1538
S'smaller.'
p1565
sI1539
S'1968'
p1566
sI1540
S'events'
p1567
sI1541
S'resulted'
p1568
sI1542
S'breakup'
p1569
sI1543
S'13'
p1570
sI1544
S'independent'
p1571
sI1545
S'campuses.'
p1572
sI1546
S'giant,'
p1573
sI1547
S'Saturn.'
p1574
sI1548
S'mixture'
p1575
sI1549
S'some'
p1576
sI1550
S'predominantly'
p1577
sI1551
S'molecular'
p1578
sI1552
S'Storms'
p1579
sI1553
S'turbulent'
p1580
sI1554
S'atmospheres'
p1581
sI1555
S'Diderot'
p1582
sI1556
S"d'Alembert"
p1583
sI1557
S'published'
p1584
sI1558
S'Encyclop\xc3\xa9die'
p1585
sI1559
S'1751-52,'
p1586
sI1560
S'Montgolfier'
p1587
sI1561
S'Brothers'
p1588
sI1562
S'manned'
p1589
sI1563
S'flight'
p1590
sI1564
S'hot-air'
p1591
sI1565
S'balloon'
p1592
sI1566
S'21'
p1593
sI1567
S'1783,'
p1594
sI1568
S'gardens'
p1595
sI1569
S'Ch\xc3\xa2teau'
p1596
sI1570
S'Muette.'
p1597
sI1571
S'Hydrogen'
p1598
sI1572
S'said'
p1599
sI1573
S'supercritical'
p1600
sI1574
S'fluid'
p1601
sI1575
S'state.'
p1602
sI1576
S'replaced'
p1603
sI1577
S'reporting'
p1604
sI1578
S'him.'
p1605
sI1579
S'traces'
p1606
sI1580
S'carbon,'
p1607
sI1581
S'ethane,'
p1608
sI1582
S'sulfide,'
p1609
sI1583
S'neon,'
p1610
sI1584
S'oxygen,'
p1611
sI1585
S'phosphine,'
p1612
sI1586
S'sulfur.'
p1613
sI1587
S'Mathematical'
p1614
sI1588
S'suggest'
p1615
sI1589
S'interactions'
p1616
sI1590
S'conflicting'
p1617
sI1591
S'circulation'
p1618
sI1592
S'patterns'
p1619
sI1593
S'cause'
p1620
sI1594
S'turbulence.'
p1621
sI1595
S'Theoretical'
p1622
sI1596
S'indicate'
p1623
sI1597
S'if'
p1624
sI1598
S'does'
p1625
sI1599
S'present,'
p1626
sI1600
S'shrink.'
p1627
sI1601
S'larger,'
p1628
sI1602
S'considerably'
p1629
sI1603
S'dense.'
p1630
sI1604
S'1940,'
p1631
sI1605
S'marched'
p1632
sI1606
S'declared'
p1633
sI1607
S'"open'
p1634
sI1608
S'city".'
p1635
sI1609
S'played'
p1636
sI1610
S'host'
p1637
sI1611
S'1900'
p1638
sI1612
S'1924'
p1639
sI1613
S'Summer'
p1640
sI1614
S'Olympics,'
p1641
sI1615
S'1938'
p1642
sI1616
S'Cups,'
p1643
sI1617
S'2007'
p1644
sI1618
S'Rugby'
p1645
sI1619
S'Cup.'
p1646
sI1620
S'Since'
p1647
sI1621
S'19th'
p1648
sI1622
S'Panam(e)'
p1649
sI1623
S'slang.'
p1650
sI1624
S'barycenter'
p1651
sI1625
S'1.068'
p1652
sI1626
S'radii'
p1653
sI1627
S'center.'
p1654
sI1628
S'1190'
p1655
sI1629
S'1202,'
p1656
sI1630
S'Philip'
p1657
sI1631
S'Augustus'
p1658
sI1632
S'fortress'
p1659
sI1633
S'Louvre,'
p1660
sI1634
S'construction'
p1661
sI1635
S'Dame,'
p1662
sI1636
S'rebuilt'
p1663
sI1637
S'paving'
p1664
sI1638
S'main'
p1665
sI1639
S'thoroughfares,'
p1666
sI1640
S'fortified'
p1667
sI1641
S'wall'
p1668
sI1642
S'Commune,'
p1669
sI1643
S'council,'
p1670
sI1644
S'Ville'
p1671
sI1645
S'15'
p1672
sI1646
S'Mayor,'
p1673
sI1647
S'astronomer'
p1674
sI1648
S'Jean'
p1675
sI1649
S'Sylvain'
p1676
sI1650
S'Bailly.'
p1677
sI1651
S'By'
p1678
sI1652
S'1901,'
p1679
sI1653
S'grown'
p1680
sI1654
S'2,715,000.'
p1681
sI1655
S'term,'
p1682
sI1656
S'promoted'
p1683
sI1657
S'policies'
p1684
sI1658
S'related'
p1685
sI1659
S'gun'
p1686
sI1660
S'control'
p1687
sI1661
S'Sandy'
p1688
sI1662
S'Hook'
p1689
sI1663
S'Elementary'
p1690
sI1664
S'shooting,'
p1691
sI1665
S'full'
p1692
sI1666
S'equality'
p1693
sI1667
S'LGBT'
p1694
sI1668
S'Americans,'
p1695
sI1669
S'administration'
p1696
sI1670
S'filed'
p1697
sI1671
S'briefs'
p1698
sI1672
S'urged'
p1699
sI1673
S'Supreme'
p1700
sI1674
S'Court'
p1701
sI1675
S'strike'
p1702
sI1676
S'Defense'
p1703
sI1677
S'Marriage'
p1704
sI1678
S'1996'
p1705
sI1679
S"California's"
p1706
sI1680
S'Proposition'
p1707
sI1681
S'8'
p1708
sI1682
S'unconstitutional.'
p1709
sI1683
S'987'
p1710
sI1684
S'Hugh'
p1711
sI1685
S'Capet,'
p1712
sI1686
S'Count'
p1713
sI1687
S'Franks'
p1714
sI1688
S'King'
p1715
sI1689
S'Franks.'
p1716
sI1690
S'war,'
p1717
sI1691
S'Les'
p1718
sI1692
S'Ann\xc3\xa9es'
p1719
sI1693
S'Folles,'
p1720
sI1694
S'mecca'
p1721
sI1695
S'writers,'
p1722
sI1696
S'musicians'
p1723
sI1697
S'Ernest'
p1724
sI1698
S'Hemingway,'
p1725
sI1699
S'Igor'
p1726
sI1700
S'Stravinsky,'
p1727
sI1701
S'Josephine'
p1728
sI1702
S'Baker,'
p1729
sI1703
S'Sidney'
p1730
sI1704
S'Bechet'
p1731
sI1705
S'surrealist'
p1732
sI1706
S'Salvador'
p1733
sI1707
S'Dal\xc3\xad.'
p1734
sI1708
S'notable'
p1735
sI1709
S'architectural'
p1736
sI1710
S'landmarks'
p1737
sI1711
S'Cathedral.'
p1738
sI1712
S'visibly'
p1739
sI1713
S'segregated'
p1740
sI1714
S'bands'
p1741
sI1715
S'latitudes,'
p1742
sI1716
S'resulting'
p1743
sI1717
S'turbulence'
p1744
sI1718
S'interacting'
p1745
sI1719
S'boundaries.'
p1746
sI1720
S'explored'
p1747
sI1721
S'occasions'
p1748
sI1722
S'robotic'
p1749
sI1723
S'spacecraft,'
p1750
sI1724
S'notably'
p1751
sI1725
S'early'
p1752
sI1726
S'Pioneer'
p1753
sI1727
S'Voyager'
p1754
sI1728
S'flyby'
p1755
sI1729
S'missions'
p1756
sI1730
S'later'
p1757
sI1731
S'orbiter.'
p1758
sI1732
S'father,'
p1759
sI1733
S'Obama,'
p1760
sI1734
S'Sr.,'
p1761
sI1735
S'Luo'
p1762
sI1736
S'Nyang\xe2\x80\x99oma'
p1763
sI1737
S'Kogelo,'
p1764
sI1738
S'Kenya.'
p1765
sI1739
S'System,'
p1766
sI1740
S'spanning'
p1767
sI1741
S'over'
p1768
sI1742
S'5,000'
p1769
sI1743
S'(3,107'
p1770
sI1744
S'altitude.'
p1771
sI1745
S'defeated'
p1772
sI1746
S'John'
p1773
sI1747
S'McCain'
p1774
sI1748
S'election,'
p1775
sI1749
S'inaugurated'
p1776
sI1750
S'2009.'
p1777
sI1751
S'Brown'
p1778
sI1752
S'warmer'
p1779
sI1753
S'"normal'
p1780
sI1754
S'layer".'
p1781
sI1755
S'merged'
p1782
sI1756
S'Oval'
p1783
sI1757
S'BA,'
p1784
sI1758
S'nicknamed'
p1785
sI1759
S'Spot'
p1786
sI1760
S'Junior.'
p1787
sI1761
S'17'
p1788
sI1762
S'October'
p1789
sI1763
S'unauthorised'
p1790
sI1764
S'peaceful'
p1791
sI1765
S'protest'
p1792
sI1766
S'demonstration'
p1793
sI1767
S'Algerians'
p1794
sI1768
S'violent'
p1795
sI1769
S'confrontations'
p1796
sI1770
S'demonstrators,'
p1797
sI1771
S'40'
p1798
sI1772
S'people'
p1799
sI1773
S'killed,'
p1800
sI1774
S'thrown'
p1801
sI1775
S'Seine.'
p1802
sI1776
S'suburban'
p1803
sI1777
S'network,'
p1804
sI1778
S'RER,'
p1805
sI1779
S'complement'
p1806
sI1780
S'M\xc3\xa9tro,'
p1807
sI1781
S'P\xc3\xa9riph\xc3\xa9rique'
p1808
sI1782
S'expressway'
p1809
sI1783
S'encircling'
p1810
sI1784
S'city,'
p1811
sI1785
S'completed'
p1812
sI1786
S'later,'
p1813
sI1787
S'Wars'
p1814
sI1788
S'Religion,'
p1815
sI1789
S'stronghold'
p1816
sI1790
S'Catholic'
p1817
sI1791
S'League.'
p1818
sI1792
S'Under'
p1819
sI1793
S'Capetian'
p1820
sI1794
S'kings,'
p1821
sI1795
S'XIV'
p1822
sI1796
S'distrusted'
p1823
sI1797
S'court'
p1824
sI1798
S'Versailles'
p1825
sI1799
S'1682,'
p1826
sI1800
S'reign'
p1827
sI1801
S'saw'
p1828
sI1802
S'unprecedented'
p1829
sI1803
S'flourishing'
p1830
sI1804
S'arts'
p1831
sI1805
S'sciences'
p1832
sI1806
S'depth,'
p1833
sI1807
S'critical'
p1834
sI1808
S'temperature,'
p1835
sI1809
S'33'
p1836
sI1810
S'K.'
p1837
sI1811
S'Even'
p1838
sI1812
S'proved'
p1839
sI1813
S'storm,'
p1840
sI1814
S'spot'
p1841
sI1815
S'could'
p1842
sI1816
S'associated'
p1843
sI1817
S'differentially'
p1844
sI1818
S'respect'
p1845
sI1819
S'rest'
p1846
sI1820
S'atmosphere,'
p1847
sI1821
S'faster'
p1848
sI1822
S'slowly.'
p1849
sI1823
S'home'
p1850
sI1824
S'museum'
p1851
sI1825
S'well'
p1852
sI1826
S'Mus\xc3\xa9e'
p1853
sI1827
S"d'Orsay,"
p1854
sI1828
S'noted'
p1855
sI1829
S'collection'
p1856
sI1830
S'Impressionist'
p1857
sI1831
S'art,'
p1858
sI1832
S"d'Art"
p1859
sI1833
S'Moderne,'
p1860
sI1834
S'modern'
p1861
sI1835
S'contemporary'
p1862
sI1836
S'art.'
p1863
sI1837
S'rocky,'
p1864
sI1838
S'detailed'
p1865
sI1839
S'unknown,'
p1866
sI1840
S'properties'
p1867
sI1841
S'materials'
p1868
sI1842
S'pressures'
p1869
sI1843
S'depths'
p1870
sI1844
S'(see'
p1871
sI1845
S'below).'
p1872
sI1846
S'hub'
p1873
sI1847
S'road'
p1874
sI1848
S'orbital'
p1875
sI1849
S'roads.'
p1876
sI1850
S'unit'
p1877
sI1851
S'objects,'
p1878
sI1852
S'extrasolar'
p1879
sI1853
S'dwarfs.'
p1880
sI1854
S'meantime,'
p1881
sI1855
S'undergraduate'
p1882
sI1856
S'economics'
p1883
sI1857
S'degree'
p1884
sI1858
S'1962,'
p1885
sI1859
S'left'
p1886
sI1860
S'attend'
p1887
sI1861
S'school'
p1888
sI1862
S'presence'
p1889
sI1863
S'part'
p1890
sI1864
S'require'
p1891
sI1865
S'icy'
p1892
sI1866
S'collect'
p1893
sI1867
S'bulk'
p1894
sI1868
S'protosolar'
p1895
sI1869
S'hence'
p1896
sI1870
S'Celtic'
p1897
sI1871
S'Parisii,'
p1898
sI1872
S'gave'
p1899
sI1873
S'name.'
p1900
sI1874
S'1860s,'
p1901
sI1875
S'boulevards'
p1902
sI1876
S'illuminated'
p1903
sI1877
S'56,000'
p1904
sI1878
S'lamps.'
p1905
sI1879
S'Despite'
p1906
sI1880
S'this,'
p1907
sI1881
S'radiates'
p1908
sI1882
S'receives'
p1909
sI1883
S'what'
p1910
sI1884
S'theorists'
p1911
sI1885
S'call'
p1912
sI1886
S'Grand'
p1913
sI1887
S'Tack'
p1914
sI1888
S'Hypothesis,'
p1915
sI1889
S'tugs'
p1916
sI1890
S'pulls'
p1917
sI1891
S'occurred'
p1918
sI1892
S'causing'
p1919
sI1893
S'orbits'
p1920
sI1894
S'overlap.'
p1921
sI1895
S'And'
p1922
sI1896
S'Pont'
p1923
sI1897
S'Alexandre'
p1924
sI1898
S'Palais,'
p1925
sI1899
S'Petit'
p1926
sI1900
S'M\xc3\xa9tro'
p1927
sI1901
S'line.'
p1928
sI1902
S'12th'
p1929
sI1903
S'western'
p1930
sI1904
S'centre,'
p1931
sI1905
S'1831,'
p1932
sI1906
S'1665.'
p1933
sI1907
S'Thus,'
p1934
sI1908
S'approximately'
p1935
sI1909
S'75%'
p1936
sI1910
S'remaining'
p1937
sI1911
S'consisting'
p1938
sI1912
S'elements.'
p1939
sI1913
S'So,'
p1940
sI1914
S'example,'
p1941
sI1915
S'HD'
p1942
sI1916
S'209458'
p1943
sI1917
S'b'
p1944
sI1918
S'0.69'
p1945
sI1919
S'MJ,'
p1946
sI1920
S'Kappa'
p1947
sI1921
S'Andromedae'
p1948
sI1922
S'12.8'
p1949
sI1923
S'MJ.'
p1950
sI1924
S'March,'
p1951
sI1925
S'They'
p1952
sI1926
S'repelled'
p1953
sI1927
S'attempt'
p1954
sI1928
S'liberate'
p1955
sI1929
S'Joan'
p1956
sI1930
S'Arc'
p1957
sI1931
S'1429.'
p1958
sI1932
S'Cardinal'
p1959
sI1933
S'Richelieu,'
p1960
sI1934
S'chief'
p1961
sI1935
S'minister'
p1962
sI1936
S'determined'
p1963
sI1937
S'beautiful'
p1964
sI1938
S'time'
p1965
sI1939
S'assassination'
p1966
sI1940
S'1610,'
p1967
sI1941
S'Henry'
p1968
sI1942
S'Neuf,'
p1969
sI1943
S'bridge'
p1970
sI1944
S'sidewalks'
p1971
sI1945
S'lined'
p1972
sI1946
S'buildings,'
p1973
sI1947
S'linked'
p1974
sI1948
S'wing'
p1975
sI1949
S'Louvre'
p1976
sI1950
S'Palace,'
p1977
sI1951
S'residential'
p1978
sI1952
S'square,'
p1979
sI1953
S'Royale,'
p1980
sI1954
S'des'
p1981
sI1955
S'Vosges.'
p1982
sI1956
S'name'
p1983
sI1957
S'derived'
p1984
sI1958
S'inhabitants,'
p1985
sI1959
S'Parisii'
p1986
sI1960
S'tribe.'
p1987
sI1961
S'formed,'
p1988
sI1962
S'hotter'
p1989
sI1963
S'twice'
p1990
sI1964
S'association'
p1991
sI1965
S'football'
p1992
sI1966
S'club'
p1993
sI1967
S'Saint-Germain'
p1994
sI1968
S'rugby'
p1995
sI1969
S'union'
p1996
sI1970
S'Fran\xc3\xa7ais.'
p1997
sI1971
S'ovals,'
p1998
sI1972
S'lesser'
p1999
sI1973
S'unnamed'
p2000
sI1974
S'storms.'
p2001
sI1975
S'Light,'
p2002
sI1976
S'both'
p2003
sI1977
S'role'
p2004
sI1978
S'Enlightenment,'
p2005
sI1979
S'literally'
p2006
sI1980
S'adopt'
p2007
sI1981
S'street'
p2008
sI1982
S'lighting.'
p2009
sI1983
S'Republicans'
p2010
sI1984
S'regained'
p2011
sI1985
S'lost'
p2012
sI1986
S'63'
p2013
sI1987
S'seats;'
p2014
sI1988
S'lengthy'
p2015
sI1989
S'debate'
p2016
sI1990
S'federal'
p2017
sI1991
S'spending'
p2018
sI1992
S'whether'
p2019
sI1993
S'raise'
p2020
sI1994
S"nation's"
p2021
sI1995
S'debt'
p2022
sI1996
S'limit,'
p2023
sI1997
S'Budget'
p2024
sI1998
S'Control'
p2025
sI1999
S'Taxpayer'
p2026
sI2000
S'Relief'
p2027
sI2001
S'2012.'
p2028
sI2002
S'troop'
p2029
sI2003
S'START'
p2030
sI2004
S'arms'
p2031
sI2005
S'treaty'
p2032
sI2006
S'Russia,'
p2033
sI2007
S'Libya'
p2034
sI2008
S'opposition'
p2035
sI2009
S'Muammar'
p2036
sI2010
S'Gaddafi,'
p2037
sI2011
S'operation'
p2038
sI2012
S'Osama'
p2039
sI2013
S'bin'
p2040
sI2014
S'Laden.'
p2041
sI2015
S'leave'
p2042
sI2016
S'monuments'
p2043
sI2017
S'reign,'
p2044
sI2018
S'Coll\xc3\xa8ge'
p2045
sI2019
S'Quatre-Nations,'
p2046
sI2020
S'Vend\xc3\xb4me,'
p2047
sI2021
S'Victoires,'
p2048
sI2022
S'Invalides.'
p2049
sI2023
S'600'
p2050
sI2024
S'taxis'
p2051
sI2025
S'symbolic'
p2052
sI2026
S'transporting'
p2053
sI2027
S'6,000'
p2054
sI2028
S'Battle'
p2055
sI2029
S'Marne.'
p2056
sI2030
S'1968,'
p2057
sI2031
S'protesting'
p2058
sI2032
S'students'
p2059
sI2033
S'Sorbonne'
p2060
sI2034
S'put'
p2061
sI2035
S'barricades'
p2062
sI2036
S'Latin'
p2063
sI2037
S'Quarter.'
p2064
sI2038
S'smaller,'
p2065
sI2039
S'oval-shaped'
p2066
sI2040
S'single'
p2067
sI2041
S'feature\xe2\x80\x94these'
p2068
sI2042
S'smaller'
p2069
sI2043
S'1938.'
p2070
sI2044
S'Opened'
p2071
sI2045
S'1900,'
p2072
sI2046
S'subway'
p2073
sI2047
S'system,'
p2074
sI2048
S'serves'
p2075
sI2049
S'passengers'
p2076
sI2050
S'daily.'
p2077
sI2051
S'Right'
p2078
sI2052
S'Bank'
p2079
sI2053
S'commerce'
p2080
sI2054
S'finance.'
p2081
sI2055
S'Nine'
p2082
sI2056
S'Nobel'
p2083
sI2057
S'Peace'
p2084
sI2058
S'Prize'
p2085
sI2059
S'laureate.'
p2086
sI2060
S'political,'
p2087
sI2061
S'economic,'
p2088
sI2062
S'religious,'
p2089
sI2063
S'cultural'
p2090
sI2064
S'birthplace'
p2091
sI2065
S'Fauvism,'
p2092
sI2066
S'Cubism'
p2093
sI2067
S'abstract'
p2094
sI2068
S'authors'
p2095
sI2069
S'Marcel'
p2096
sI2070
S'Proust'
p2097
sI2071
S'exploring'
p2098
sI2072
S'approaches'
p2099
sI2073
S'literature.'
p2100
sI2074
S'100,000'
p2101
sI2075
S'1815,'
p2102
sI2076
S'surged'
p2103
sI2077
S'160,000'
p2104
sI2078
S'residents,'
p2105
sI2079
S'reaching'
p2106
sI2080
S'660,000.'
p2107
sI2081
S'corporation'
p2108
sI2082
S'teachers'
p2109
sI2083
S'mid-12th'
p2110
sI2084
S'scholars'
p2111
sI2085
S'theology,'
p2112
sI2086
S'canon'
p2113
sI2087
S'law,'
p2114
sI2088
S'medicine'
p2115
sI2089
S'arts.'
p2116
sI2090
S'slight'
p2117
sI2091
S'noticeable'
p2118
sI2092
S'bulge'
p2119
sI2093
S'maximum'
p2120
sI2094
S'altitude'
p2121
sI2095
S'(5'
p2122
sI2096
S'cloudtops.'
p2123
sI2097
S'sub-tribe'
p2124
sI2098
S'Senones,'
p2125
sI2099
S'inhabited'
p2126
sI2100
S'BC.'
p2127
sI2101
S'hosts'
p2128
sI2102
S'annual'
p2129
sI2103
S'Open'
p2130
sI2104
S'Slam'
p2131
sI2105
S'tennis'
p2132
sI2106
S'tournament'
p2133
sI2107
S'clay'
p2134
sI2108
S'Roland'
p2135
sI2109
S'Garros.'
p2136
sI2110
S'traded'
p2137
sI2111
S'far'
p2138
sI2112
S'away'
p2139
sI2113
S'Spain,'
p2140
sI2114
S'minted'
p2141
sI2115
S'coins'
p2142
sI2116
S'purpose.'
p2143
sI2117
S'Roman'
p2144
sI2118
S'Empire,'
p2145
sI2119
S'simply'
p2146
sI2120
S'Parisius'
p2147
sI2121
S'French.'
p2148
sI2122
S'Late'
p2149
sI2123
S'hosted'
p2150
sI2124
S'expositions:'
p2151
sI2125
S'ejected'
p2152
sI2126
S'satellites'
p2153
sI2127
S'Adrastea'
p2154
sI2128
S'Metis.'
p2155
sI2129
S'summer'
p2156
sI2130
S'Revolution.'
p2157
sI2131
S'tropopause'
p2158
sI2132
S'arranged'
p2159
sI2133
S'tropical'
p2160
sI2134
S'regions.'
p2161
sI2135
S'sub-divided'
p2162
sI2136
S'lighter-hued'
p2163
sI2137
S'darker'
p2164
sI2138
S'belts.'
p2165
sI2139
S'1793,'
p2166
sI2140
S'revolution'
p2167
sI2141
S'turned'
p2168
sI2142
S'radical,'
p2169
sI2143
S'king,'
p2170
sI2144
S'queen,'
p2171
sI2145
S'guillotined,'
p2172
sI2146
S'16,000'
p2173
sI2147
S'others'
p2174
sI2148
S'(throughout'
p2175
sI2149
S'France),'
p2176
sI2150
S'Reign'
p2177
sI2151
S'Terror.'
p2178
sI2152
S'outermost'
p2179
sI2153
S'frozen'
p2180
sI2154
S'ammonia.'
p2181
sI2155
S'\xc3\x8ele'
p2182
sI2156
S'Cit\xc3\xa9'
p2183
sI2157
S'palace.'
p2184
sI2158
S'state,'
p2185
sI2159
S'phases.'
p2186
sI2160
S'1163,'
p2187
sI2161
S'VII,'
p2188
sI2162
S'Maurice'
p2189
sI2163
S'Sully,'
p2190
sI2164
S'bishop'
p2191
sI2165
S'undertook'
p2192
sI2166
S'Cathedral'
p2193
sI2167
S'extremity.'
p2194
sI2168
S'Rain-like'
p2195
sI2169
S'droplets'
p2196
sI2170
S'neon'
p2197
sI2171
S'precipitate'
p2198
sI2172
S'depleting'
p2199
sI2173
S'Neon'
p2200
sI2174
S'20'
p2201
sI2175
S'parts'
p2202
sI2176
S'per'
p2203
sI2177
S'abundant'
p2204
sI2178
S'presidential'
p2205
sI2179
S'Hillary'
p2206
sI2180
S'Rodham'
p2207
sI2181
S'Clinton'
p2208
sI2182
S'2008,'
p2209
sI2183
S'sufficient'
p2210
sI2184
S'delegates'
p2211
sI2185
S'primaries'
p2212
sI2186
S'nomination.'
p2213
sI2187
S'exact'
p2214
sI2188
S'makeup'
p2215
sI2189
S'uncertain,'
p2216
sI2190
S'substances'
p2217
sI2191
S'phosphorus,'
p2218
sI2192
S'sulfur'
p2219
sI2193
S'hydrocarbons.'
p2220
sI2194
S'gaseous'
p2221
sI2195
S'divorced'
p2222
sI2196
S'1964.'
p2223
sI2197
S'one-thousandth'
p2224
sI2198
S'half'
p2225
sI2199
S'erecting'
p2226
sI2200
S'glory,'
p2227
sI2201
S'Triomphe,'
p2228
sI2202
S'improved'
p2229
sI2203
S'infrastructure'
p2230
sI2204
S'fountains,'
p2231
sI2205
S'Canal'
p2232
sI2206
S"l'Ourcq,"
p2233
sI2207
S'P\xc3\xa8re'
p2234
sI2208
S'Lachaise'
p2235
sI2209
S'Cemetery'
p2236
sI2210
S'metal'
p2237
sI2211
S'bridge,'
p2238
sI2212
S'Arts.'
p2239
ssg17
I01
sg18
(dp2240
g1447
I1420
sg856
I829
sg767
I740
sg470
I443
sg1792
I1765
sg34
I7
sg1399
I1372
sg1760
I1733
sg1631
I1604
sg636
I609
sg1262
I1235
sg1628
I1601
sg1316
I1289
sg824
I797
sg785
I758
sg637
I610
sg1582
I1555
sg1968
I1941
sg659
I632
sg507
I480
sg1943
I1916
sg1888
I1861
sg532
I505
sg333
I306
sg1626
I1599
sg589
I562
sg81
I54
sg771
I744
sg1790
I1763
sg1688
I1661
sg2154
I2127
sg1178
I1151
sg1951
I1924
sg1510
I1483
sg1104
I1077
sg1410
I1383
sg465
I438
sg2008
I1981
sg2156
I2129
sg1190
I1163
sg1649
I1622
sg452
I425
sg153
I126
sg1107
I1080
sg839
I812
sg2088
I2061
sg815
I788
sg1662
I1635
sg577
I550
sg827
I800
sg1818
I1791
sg1938
I1911
sg2024
I1997
sg1035
I1008
sg2037
I2010
sg925
I898
sg759
I732
sg2125
I2098
sg1731
I1704
sg491
I464
sg1113
I1086
sg810
I783
sg2158
I2131
sg108
I81
sg1214
I1187
sg1200
I1173
sg1739
I1712
sg615
I588
sg543
I516
sg1311
I1284
sg1717
I1690
sg1457
I1430
sg1877
I1850
sg2047
I2020
sg688
I661
sg996
I969
sg1835
I1808
sg2142
I2115
sg168
I141
sg1306
I1279
sg1912
I1885
sg1702
I1675
sg86
I59
sg987
I960
sg673
I646
sg453
I426
sg1827
I1800
sg1098
I1071
sg1679
I1652
sg2031
I2004
sg310
I283
sg1160
I1133
sg1054
I1027
sg800
I773
sg1049
I1022
sg1403
I1376
sg1424
I1397
sg1379
I1352
sg1131
I1104
sg1659
I1632
sg1808
I1781
sg272
I245
sg1853
I1826
sg430
I403
sg30
I3
sg138
I111
sg718
I691
sg1000
I973
sg1655
I1628
sg1538
I1511
sg429
I402
sg710
I683
sg1066
I1039
sg947
I920
sg1290
I1263
sg1624
I1597
sg1408
I1381
sg142
I115
sg2049
I2022
sg80
I53
sg1771
I1744
sg1274
I1247
sg233
I206
sg1257
I1230
sg179
I152
sg1816
I1789
sg1954
I1927
sg331
I304
sg648
I621
sg1425
I1398
sg791
I764
sg1378
I1351
sg1491
I1464
sg1536
I1509
sg1125
I1098
sg1355
I1328
sg662
I635
sg134
I107
sg1768
I1741
sg418
I391
sg1596
I1569
sg1312
I1285
sg1949
I1922
sg984
I957
sg720
I693
sg850
I823
sg1754
I1727
sg282
I255
sg768
I741
sg2198
I2171
sg578
I551
sg1229
I1202
sg431
I404
sg1308
I1281
sg1269
I1242
sg2235
I2208
sg1613
I1586
sg425
I398
sg665
I638
sg450
I423
sg2025
I1998
sg739
I712
sg1137
I1110
sg1216
I1189
sg2070
I2043
sg587
I560
sg284
I257
sg715
I688
sg608
I581
sg1454
I1427
sg890
I863
sg1130
I1103
sg328
I301
sg866
I839
sg1977
I1950
sg752
I725
sg1051
I1024
sg1535
I1508
sg2150
I2123
sg764
I737
sg1354
I1327
sg1341
I1314
sg1427
I1400
sg1068
I1041
sg1431
I1404
sg1814
I1787
sg2115
I2088
sg1351
I1324
sg1331
I1304
sg1349
I1322
sg353
I326
sg1040
I1013
sg1386
I1359
sg1670
I1643
sg1313
I1286
sg2208
I2181
sg1412
I1385
sg1706
I1679
sg1099
I1072
sg1143
I1116
sg321
I294
sg1723
I1696
sg1478
I1451
sg758
I731
sg552
I525
sg569
I542
sg1072
I1045
sg1071
I1044
sg548
I521
sg2092
I2065
sg924
I897
sg1307
I1280
sg1935
I1908
sg1338
I1311
sg1681
I1654
sg951
I924
sg308
I281
sg1442
I1415
sg2209
I2182
sg1930
I1903
sg641
I614
sg598
I571
sg1486
I1459
sg1240
I1213
sg1360
I1333
sg53
I26
sg1970
I1943
sg1589
I1562
sg1067
I1040
sg510
I483
sg719
I692
sg1393
I1366
sg1861
I1834
sg1521
I1494
sg1453
I1426
sg714
I687
sg1239
I1212
sg1232
I1205
sg1566
I1539
sg486
I459
sg40
I13
sg929
I902
sg861
I834
sg1036
I1009
sg869
I842
sg405
I378
sg1919
I1892
sg449
I422
sg560
I533
sg1952
I1925
sg1065
I1038
sg555
I528
sg2079
I2052
sg776
I749
sg1594
I1567
sg342
I315
sg413
I386
sg230
I203
sg931
I904
sg1002
I975
sg2063
I2036
sg506
I479
sg748
I721
sg386
I359
sg297
I270
sg981
I954
sg1347
I1320
sg2237
I2210
sg2032
I2005
sg2175
I2148
sg891
I864
sg1419
I1392
sg591
I564
sg2102
I2075
sg1499
I1472
sg952
I925
sg1123
I1096
sg274
I247
sg1653
I1626
sg1640
I1613
sg132
I105
sg553
I526
sg1927
I1900
sg789
I762
sg2103
I2076
sg570
I543
sg1033
I1006
sg2046
I2019
sg674
I647
sg1458
I1431
sg1575
I1548
sg126
I99
sg1362
I1335
sg347
I320
sg247
I220
sg1601
I1574
sg1450
I1423
sg949
I922
sg826
I799
sg92
I65
sg1476
I1449
sg1926
I1899
sg1990
I1963
sg104
I77
sg2029
I2002
sg682
I655
sg2045
I2018
sg797
I770
sg441
I414
sg2086
I2059
sg609
I582
sg417
I390
sg312
I285
sg1020
I993
sg1682
I1655
sg1537
I1510
sg1599
I1572
sg150
I123
sg2139
I2112
sg523
I496
sg1869
I1842
sg2009
I1982
sg794
I767
sg304
I277
sg464
I437
sg1933
I1906
sg28
I1
sg2022
I1995
sg892
I865
sg1512
I1485
sg1211
I1184
sg71
I44
sg1477
I1450
sg818
I791
sg1270
I1243
sg1448
I1421
sg235
I208
sg1909
I1882
sg2171
I2144
sg1966
I1939
sg44
I17
sg1781
I1754
sg840
I813
sg1724
I1697
sg1168
I1141
sg1996
I1969
sg66
I39
sg416
I389
sg1346
I1319
sg2206
I2179
sg821
I794
sg1398
I1371
sg693
I666
sg147
I120
sg1243
I1216
sg476
I449
sg1953
I1926
sg1086
I1059
sg937
I910
sg986
I959
sg881
I854
sg2196
I2169
sg366
I339
sg1797
I1770
sg1047
I1020
sg1924
I1897
sg2187
I2160
sg2080
I2053
sg2127
I2100
sg1999
I1972
sg1689
I1662
sg285
I258
sg487
I460
sg2109
I2082
sg572
I545
sg690
I663
sg1883
I1856
sg1167
I1140
sg1636
I1609
sg414
I387
sg73
I46
sg227
I200
sg1772
I1745
sg1583
I1556
sg1777
I1750
sg1222
I1195
sg402
I375
sg1498
I1471
sg1680
I1653
sg1248
I1221
sg1931
I1904
sg1615
I1588
sg700
I673
sg1741
I1714
sg306
I279
sg730
I703
sg2100
I2073
sg1571
I1544
sg1632
I1605
sg1435
I1408
sg1652
I1625
sg1598
I1571
sg1480
I1453
sg210
I183
sg1868
I1841
sg1057
I1030
sg55
I28
sg1886
I1859
sg263
I236
sg1426
I1399
sg2053
I2026
sg667
I640
sg626
I599
sg1204
I1177
sg546
I519
sg1832
I1805
sg311
I284
sg176
I149
sg149
I122
sg518
I491
sg960
I933
sg1657
I1630
sg488
I461
sg1470
I1443
sg1847
I1820
sg940
I913
sg661
I634
sg339
I312
sg207
I180
sg438
I411
sg2090
I2063
sg502
I475
sg1194
I1167
sg757
I730
sg1581
I1554
sg512
I485
sg479
I452
sg1397
I1370
sg374
I347
sg1244
I1217
sg1957
I1930
sg231
I204
sg354
I327
sg1050
I1023
sg877
I850
sg1911
I1884
sg252
I225
sg755
I728
sg123
I96
sg855
I828
sg193
I166
sg1192
I1165
sg1223
I1196
sg409
I382
sg1645
I1618
sg1750
I1723
sg1942
I1915
sg1517
I1490
sg202
I175
sg455
I428
sg527
I500
sg1892
I1865
sg1718
I1691
sg1271
I1244
sg1989
I1962
sg503
I476
sg619
I592
sg1053
I1026
sg2186
I2159
sg47
I20
sg2054
I2027
sg541
I514
sg1736
I1709
sg1867
I1840
sg100
I73
sg2005
I1978
sg301
I274
sg812
I785
sg1226
I1199
sg1444
I1417
sg895
I868
sg542
I515
sg1528
I1501
sg1455
I1428
sg590
I563
sg1889
I1862
sg1048
I1021
sg1758
I1731
sg833
I806
sg1496
I1469
sg65
I38
sg253
I226
sg406
I379
sg1056
I1029
sg1175
I1148
sg1451
I1424
sg2141
I2114
sg2121
I2094
sg966
I939
sg182
I155
sg1556
I1529
sg1252
I1225
sg614
I587
sg83
I56
sg294
I267
sg2221
I2194
sg1084
I1057
sg540
I513
sg50
I23
sg1191
I1164
sg1314
I1287
sg459
I432
sg1207
I1180
sg243
I216
sg1878
I1851
sg1675
I1648
sg1233
I1206
sg1254
I1227
sg1159
I1132
sg893
I866
sg2120
I2093
sg1714
I1687
sg180
I153
sg251
I224
sg2007
I1980
sg1839
I1812
sg2094
I2067
sg2133
I2106
sg1826
I1799
sg633
I606
sg738
I711
sg1259
I1232
sg1392
I1365
sg1591
I1564
sg1546
I1519
sg2217
I2190
sg95
I68
sg2004
I1977
sg1372
I1345
sg584
I557
sg72
I45
sg1992
I1965
sg1148
I1121
sg1391
I1364
sg1587
I1560
sg1848
I1821
sg246
I219
sg991
I964
sg1965
I1938
sg370
I343
sg1187
I1160
sg1799
I1772
sg91
I64
sg1369
I1342
sg2204
I2177
sg1755
I1728
sg1279
I1252
sg1501
I1474
sg1138
I1111
sg260
I233
sg1522
I1495
sg1043
I1016
sg780
I753
sg1202
I1175
sg1849
I1822
sg1460
I1433
sg2085
I2058
sg982
I955
sg1862
I1835
sg2214
I2187
sg817
I790
sg1469
I1442
sg362
I335
sg2222
I2195
sg596
I569
sg705
I678
sg1929
I1902
sg335
I308
sg192
I165
sg1686
I1659
sg2042
I2015
sg2073
I2046
sg48
I21
sg1380
I1353
sg365
I338
sg445
I418
sg2167
I2140
sg679
I652
sg2011
I1984
sg1015
I988
sg1746
I1719
sg1230
I1203
sg201
I174
sg948
I921
sg524
I497
sg2077
I2050
sg305
I278
sg962
I935
sg172
I145
sg525
I498
sg2161
I2134
sg296
I269
sg1438
I1411
sg2034
I2007
sg300
I273
sg2215
I2188
sg1901
I1874
sg361
I334
sg859
I832
sg551
I524
sg741
I714
sg1396
I1369
sg1507
I1480
sg813
I786
sg1737
I1710
sg2076
I2049
sg2118
I2091
sg1446
I1419
sg1497
I1470
sg1109
I1082
sg1549
I1522
sg474
I447
sg1964
I1937
sg2020
I1993
sg644
I617
sg788
I761
sg214
I187
sg735
I708
sg691
I664
sg953
I926
sg2064
I2037
sg1092
I1065
sg241
I214
sg1789
I1762
sg1859
I1832
sg125
I98
sg654
I627
sg219
I192
sg1401
I1374
sg2112
I2085
sg870
I843
sg1885
I1858
sg2136
I2109
sg1691
I1664
sg1574
I1547
sg978
I951
sg885
I858
sg645
I618
sg1667
I1640
sg1256
I1229
sg696
I669
sg115
I88
sg753
I726
sg226
I199
sg1415
I1388
sg1373
I1346
sg1934
I1907
sg1080
I1053
sg638
I611
sg1385
I1358
sg352
I325
sg1767
I1740
sg408
I381
sg238
I211
sg2107
I2080
sg1128
I1101
sg1960
I1933
sg963
I936
sg2043
I2016
sg1475
I1448
sg1070
I1043
sg2192
I2165
sg229
I202
sg278
I251
sg1562
I1535
sg1841
I1814
sg843
I816
sg348
I321
sg781
I754
sg209
I182
sg2173
I2146
sg646
I619
sg857
I830
sg742
I715
sg316
I289
sg1784
I1757
sg1298
I1271
sg188
I161
sg605
I578
sg643
I616
sg175
I148
sg1110
I1083
sg529
I502
sg561
I534
sg657
I630
sg538
I511
sg1135
I1108
sg993
I966
sg1608
I1581
sg1529
I1502
sg320
I293
sg1665
I1638
sg178
I151
sg699
I672
sg160
I133
sg2101
I2074
sg423
I396
sg1082
I1055
sg588
I561
sg2225
I2198
sg625
I598
sg620
I593
sg1332
I1305
sg384
I357
sg1693
I1666
sg1983
I1956
sg1364
I1337
sg1303
I1276
sg39
I12
sg621
I594
sg1484
I1457
sg635
I608
sg1388
I1361
sg1085
I1058
sg862
I835
sg29
I2
sg900
I873
sg422
I395
sg1558
I1531
sg1905
I1878
sg878
I851
sg1762
I1735
sg943
I916
sg1014
I987
sg612
I585
sg2184
I2157
sg894
I867
sg281
I254
sg197
I170
sg419
I392
sg1237
I1210
sg1030
I1003
sg1673
I1646
sg1304
I1277
sg629
I602
sg1920
I1893
sg2000
I1973
sg293
I266
sg216
I189
sg1979
I1952
sg1038
I1011
sg749
I722
sg970
I943
sg1016
I989
sg498
I471
sg42
I15
sg174
I147
sg1838
I1811
sg1404
I1377
sg2132
I2105
sg1140
I1113
sg287
I260
sg357
I330
sg2052
I2025
sg1860
I1833
sg341
I314
sg1980
I1953
sg1709
I1682
sg1807
I1780
sg1488
I1461
sg592
I565
sg478
I451
sg1076
I1049
sg1705
I1678
sg888
I861
sg161
I134
sg1623
I1596
sg585
I558
sg375
I348
sg1074
I1047
sg492
I465
sg403
I376
sg2098
I2071
sg334
I307
sg858
I831
sg68
I41
sg1580
I1553
sg1292
I1265
sg1568
I1541
sg2140
I2113
sg795
I768
sg469
I442
sg1471
I1444
sg46
I19
sg1061
I1034
sg597
I570
sg1570
I1543
sg1315
I1288
sg1672
I1645
sg137
I110
sg1788
I1761
sg93
I66
sg1891
I1864
sg1024
I997
sg1586
I1559
sg533
I506
sg1357
I1330
sg112
I85
sg1701
I1674
sg426
I399
sg2168
I2141
sg1698
I1671
sg796
I769
sg1181
I1154
sg732
I705
sg2114
I2087
sg992
I965
sg186
I159
sg1203
I1176
sg668
I641
sg1656
I1629
sg345
I318
sg505
I478
sg2212
I2185
sg773
I746
sg905
I878
sg1007
I980
sg1805
I1778
sg475
I448
sg146
I119
sg1857
I1830
sg1265
I1238
sg765
I738
sg1745
I1718
sg1158
I1131
sg1550
I1523
sg228
I201
sg1757
I1730
sg1563
I1536
sg1305
I1278
sg1975
I1948
sg1205
I1178
sg811
I784
sg1800
I1773
sg356
I329
sg906
I879
sg433
I406
sg627
I600
sg1719
I1692
sg1268
I1241
sg1697
I1670
sg1504
I1477
sg902
I875
sg222
I195
sg2135
I2108
sg1263
I1236
sg919
I892
sg1441
I1414
sg1770
I1743
sg500
I473
sg1106
I1079
sg32
I5
sg122
I95
sg766
I739
sg1196
I1169
sg1126
I1099
sg1394
I1367
sg1947
I1920
sg922
I895
sg516
I489
sg1766
I1739
sg1093
I1066
sg903
I876
sg1822
I1795
sg2023
I1996
sg497
I470
sg1189
I1162
sg1671
I1644
sg2078
I2051
sg744
I717
sg254
I227
sg480
I453
sg1285
I1258
sg2124
I2097
sg1840
I1813
sg770
I743
sg41
I14
sg692
I665
sg1633
I1606
sg271
I244
sg2044
I2017
sg1881
I1854
sg265
I238
sg731
I704
sg983
I956
sg2230
I2203
sg1639
I1612
sg1913
I1886
sg1721
I1694
sg1908
I1881
sg1969
I1942
sg1463
I1436
sg2017
I1990
sg602
I575
sg1815
I1788
sg223
I196
sg1677
I1650
sg485
I458
sg689
I662
sg1112
I1085
sg1400
I1373
sg1289
I1262
sg1139
I1112
sg1694
I1667
sg248
I221
sg2201
I2174
sg994
I967
sg977
I950
sg995
I968
sg756
I729
sg143
I116
sg1756
I1729
sg944
I917
sg747
I720
sg1077
I1050
sg1520
I1493
sg1003
I976
sg1440
I1413
sg1012
I985
sg2137
I2110
sg1322
I1295
sg1547
I1520
sg420
I393
sg669
I642
sg2060
I2033
sg926
I899
sg2013
I1986
sg784
I757
sg1090
I1063
sg2026
I1999
sg1843
I1816
sg1174
I1147
sg694
I667
sg1831
I1804
sg975
I948
sg393
I366
sg1334
I1307
sg1078
I1051
sg874
I847
sg566
I539
sg2160
I2133
sg515
I488
sg1791
I1764
sg1663
I1636
sg816
I789
sg290
I263
sg279
I252
sg1962
I1935
sg1995
I1968
sg283
I256
sg1553
I1526
sg1666
I1639
sg411
I384
sg1503
I1476
sg697
I670
sg1395
I1368
sg224
I197
sg1526
I1499
sg1684
I1657
sg76
I49
sg750
I723
sg1863
I1836
sg737
I710
sg1255
I1228
sg1172
I1145
sg2113
I2086
sg1390
I1363
sg901
I874
sg611
I584
sg1945
I1918
sg762
I735
sg239
I212
sg842
I815
sg1108
I1081
sg1820
I1793
sg257
I230
sg2093
I2066
sg434
I407
sg1101
I1074
sg261
I234
sg547
I520
sg208
I181
sg1787
I1760
sg1567
I1540
sg2105
I2078
sg976
I949
sg2155
I2128
sg873
I846
sg1733
I1706
sg786
I759
sg830
I803
sg2183
I2156
sg802
I775
sg938
I911
sg2072
I2045
sg544
I517
sg43
I16
sg1001
I974
sg2131
I2104
sg1445
I1418
sg337
I310
sg1585
I1558
sg318
I291
sg778
I751
sg255
I228
sg307
I280
sg481
I454
sg1729
I1702
sg1485
I1458
sg2197
I2170
sg1846
I1819
sg1795
I1768
sg1764
I1737
sg520
I493
sg2147
I2120
sg1786
I1759
sg2223
I2196
sg1224
I1197
sg1432
I1405
sg58
I31
sg1275
I1248
sg156
I129
sg1603
I1576
sg2122
I2095
sg1752
I1725
sg473
I446
sg1142
I1115
sg139
I112
sg1011
I984
sg559
I532
sg432
I405
sg1228
I1201
sg2075
I2048
sg292
I265
sg880
I853
sg1429
I1402
sg2134
I2107
sg793
I766
sg932
I905
sg1844
I1817
sg1464
I1437
sg1416
I1389
sg1647
I1620
sg1674
I1647
sg1188
I1161
sg1058
I1031
sg955
I928
sg1069
I1042
sg1166
I1139
sg728
I701
sg212
I185
sg1019
I992
sg1834
I1807
sg2126
I2099
sg199
I172
sg298
I271
sg99
I72
sg658
I631
sg1735
I1708
sg1751
I1724
sg225
I198
sg723
I696
sg439
I412
sg2145
I2118
sg1614
I1587
sg211
I184
sg448
I421
sg537
I510
sg1366
I1339
sg1073
I1046
sg936
I909
sg1948
I1921
sg277
I250
sg939
I912
sg52
I25
sg1046
I1019
sg1462
I1435
sg681
I654
sg1114
I1087
sg535
I508
sg1146
I1119
sg889
I862
sg1898
I1871
sg961
I934
sg461
I434
sg35
I8
sg2014
I1987
sg1903
I1876
sg1097
I1070
sg1742
I1715
sg1712
I1685
sg1936
I1909
sg131
I104
sg96
I69
sg2159
I2132
sg1618
I1591
sg805
I778
sg918
I891
sg1032
I1005
sg1150
I1123
sg2178
I2151
sg1422
I1395
sg2164
I2137
sg1865
I1838
sg1720
I1693
sg2050
I2023
sg941
I914
sg2110
I2083
sg528
I501
sg1087
I1060
sg680
I653
sg49
I22
sg141
I114
sg121
I94
sg792
I765
sg2191
I2164
sg1414
I1387
sg703
I676
sg897
I870
sg102
I75
sg1500
I1473
sg1052
I1025
sg1644
I1617
sg884
I857
sg184
I157
sg2059
I2032
sg148
I121
sg1022
I995
sg1802
I1775
sg2030
I2003
sg651
I624
sg385
I358
sg401
I374
sg477
I450
sg1136
I1109
sg576
I549
sg775
I748
sg396
I369
sg117
I90
sg2162
I2135
sg1375
I1348
sg1215
I1188
sg119
I92
sg1516
I1489
sg1317
I1290
sg1939
I1912
sg1330
I1303
sg1803
I1776
sg1156
I1129
sg234
I207
sg927
I900
sg957
I930
sg746
I719
sg1250
I1223
sg1428
I1401
sg1418
I1391
sg583
I556
sg1778
I1751
sg1490
I1463
sg1946
I1919
sg1950
I1923
sg38
I11
sg1612
I1585
sg378
I351
sg851
I824
sg462
I435
sg369
I342
sg37
I10
sg2194
I2167
sg2138
I2111
sg642
I615
sg1005
I978
sg1296
I1269
sg2068
I2041
sg1452
I1425
sg400
I373
sg181
I154
sg2200
I2173
sg676
I649
sg107
I80
sg1738
I1711
sg262
I235
sg809
I782
sg1716
I1689
sg1062
I1035
sg1554
I1527
sg2220
I2193
sg686
I659
sg740
I713
sg1340
I1313
sg1042
I1015
sg1910
I1883
sg454
I427
sg1348
I1321
sg2166
I2139
sg2058
I2031
sg1921
I1894
sg1605
I1578
sg1358
I1331
sg678
I651
sg1692
I1665
sg1660
I1633
sg2021
I1994
sg124
I97
sg2055
I2028
sg823
I796
sg875
I848
sg1300
I1273
sg336
I309
sg2130
I2103
sg1871
I1844
sg1858
I1831
sg828
I801
sg1584
I1557
sg1173
I1146
sg1956
I1929
sg2232
I2205
sg1266
I1239
sg831
I804
sg397
I370
sg2001
I1974
sg2061
I2034
sg1959
I1932
sg1917
I1890
sg988
I961
sg1638
I1611
sg836
I809
sg330
I303
sg1336
I1309
sg1241
I1214
sg1037
I1010
sg315
I288
sg822
I795
sg1801
I1774
sg1253
I1226
sg2152
I2125
sg807
I780
sg1561
I1534
sg259
I232
sg456
I429
sg187
I160
sg128
I101
sg1029
I1002
sg1367
I1340
sg1981
I1954
sg1880
I1853
sg2181
I2154
sg2199
I2172
sg2193
I2166
sg2033
I2006
sg1904
I1877
sg974
I947
sg114
I87
sg1765
I1738
sg1183
I1156
sg640
I613
sg593
I566
sg2165
I2138
sg1928
I1901
sg1161
I1134
sg1319
I1292
sg471
I444
sg250
I223
sg1824
I1797
sg526
I499
sg819
I792
sg1531
I1504
sg1209
I1182
sg685
I658
sg1984
I1957
sg1602
I1575
sg2185
I2158
sg183
I156
sg45
I18
sg883
I856
sg1301
I1274
sg329
I302
sg56
I29
sg863
I836
sg1592
I1565
sg1027
I1000
sg1732
I1705
sg127
I100
sg798
I771
sg565
I538
sg1609
I1582
sg1281
I1254
sg1511
I1484
sg110
I83
sg1198
I1171
sg837
I810
sg979
I952
sg1593
I1566
sg1234
I1207
sg958
I931
sg368
I341
sg2231
I2204
sg69
I42
sg904
I877
sg314
I287
sg1559
I1532
sg647
I620
sg145
I118
sg727
I700
sg1353
I1326
sg899
I872
sg1272
I1245
sg1991
I1964
sg845
I818
sg1748
I1721
sg2074
I2047
sg513
I486
sg323
I296
sg392
I365
sg2087
I2060
sg1376
I1349
sg1365
I1338
sg2038
I2011
sg1164
I1137
sg383
I356
sg2065
I2038
sg1565
I1538
sg489
I462
sg1169
I1142
sg1417
I1390
sg1986
I1959
sg59
I32
sg2057
I2030
sg1193
I1166
sg1548
I1521
sg2082
I2055
sg1350
I1323
sg854
I827
sg1774
I1747
sg152
I125
sg1668
I1641
sg82
I55
sg458
I431
sg1728
I1701
sg1055
I1028
sg801
I774
sg266
I239
sg660
I633
sg1711
I1684
sg140
I113
sg1747
I1720
sg729
I702
sg1356
I1329
sg2041
I2014
sg599
I572
sg1063
I1036
sg1089
I1062
sg1310
I1283
sg1179
I1152
sg573
I546
sg1890
I1863
sg1251
I1224
sg2095
I2068
sg1258
I1231
sg2028
I2001
sg1776
I1749
sg2081
I2054
sg1557
I1530
sg652
I625
sg412
I385
sg1283
I1256
sg1963
I1936
sg1690
I1663
sg2051
I2024
sg1247
I1220
sg2056
I2029
sg1261
I1234
sg1852
I1825
sg2084
I2057
sg350
I323
sg2149
I2122
sg105
I78
sg165
I138
sg556
I529
sg371
I344
sg358
I331
sg1361
I1334
sg196
I169
sg1094
I1067
sg1095
I1068
sg344
I317
sg1293
I1266
sg772
I745
sg217
I190
sg31
I4
sg985
I958
sg1870
I1843
sg950
I923
sg1434
I1407
sg618
I591
sg70
I43
sg78
I51
sg495
I468
sg971
I944
sg1994
I1967
sg1572
I1545
sg1370
I1343
sg724
I697
sg1955
I1928
sg864
I837
sg1925
I1898
sg530
I503
sg911
I884
sg558
I531
sg1573
I1546
sg388
I361
sg372
I345
sg467
I440
sg447
I420
sg1041
I1014
sg968
I941
sg568
I541
sg444
I417
sg1708
I1681
sg1782
I1755
sg917
I890
sg446
I419
sg1804
I1777
sg173
I146
sg1116
I1089
sg1727
I1700
sg1186
I1159
sg273
I246
sg1944
I1917
sg1769
I1742
sg1287
I1260
sg997
I970
sg712
I685
sg327
I300
sg761
I734
sg1120
I1093
sg1344
I1317
sg1387
I1360
sg928
I901
sg808
I781
sg1527
I1500
sg1406
I1379
sg443
I416
sg1017
I990
sg240
I213
sg1519
I1492
sg118
I91
sg167
I140
sg509
I482
sg912
I885
sg1443
I1416
sg1715
I1688
sg1335
I1308
sg634
I607
sg1059
I1032
sg579
I552
sg1213
I1186
sg116
I89
sg671
I644
sg472
I445
sg94
I67
sg468
I441
sg1345
I1318
sg896
I869
sg779
I752
sg844
I817
sg1044
I1017
sg340
I313
sg571
I544
sg1856
I1829
sg1421
I1394
sg1730
I1703
sg1551
I1524
sg1221
I1194
sg1988
I1961
sg717
I690
sg2083
I2056
sg2146
I2119
sg574
I547
sg868
I841
sg343
I316
sg1105
I1078
sg1588
I1561
sg517
I490
sg898
I871
sg198
I171
sg264
I237
sg1775
I1748
sg387
I360
sg1985
I1958
sg1532
I1505
sg389
I362
sg521
I494
sg1590
I1563
sg338
I311
sg664
I637
sg2002
I1975
sg1411
I1384
sg1833
I1806
sg1023
I996
sg1321
I1294
sg169
I142
sg1829
I1802
sg1836
I1809
sg876
I849
sg508
I481
sg75
I48
sg2036
I2009
sg1323
I1296
sg1439
I1412
sg613
I586
sg135
I108
sg324
I297
sg567
I540
sg1621
I1594
sg709
I682
sg490
I463
sg2216
I2189
sg2015
I1988
sg1940
I1913
sg2179
I2152
sg87
I60
sg1743
I1716
sg2104
I2077
sg111
I84
sg763
I736
sg442
I415
sg716
I689
sg1383
I1356
sg1524
I1497
sg1185
I1158
sg484
I457
sg2180
I2153
sg133
I106
sg1916
I1889
sg814
I787
sg1734
I1707
sg564
I537
sg1157
I1130
sg1152
I1125
sg1973
I1946
sg1473
I1446
sg829
I802
sg1177
I1150
sg2151
I2124
sg1695
I1668
sg1208
I1181
sg90
I63
sg1577
I1550
sg1932
I1905
sg1474
I1447
sg1998
I1971
sg1987
I1960
sg675
I648
sg1034
I1007
sg84
I57
sg1937
I1910
sg2040
I2013
sg136
I109
sg1162
I1135
sg2148
I2121
sg606
I579
sg2039
I2012
sg1021
I994
sg683
I656
sg394
I367
sg1893
I1866
sg2176
I2149
sg1523
I1496
sg684
I657
sg1555
I1528
sg1821
I1794
sg391
I364
sg1576
I1549
sg1297
I1270
sg482
I455
sg256
I229
sg1651
I1624
sg1658
I1631
sg1481
I1454
sg258
I231
sg1534
I1507
sg129
I102
sg624
I597
sg2203
I2176
sg221
I194
sg280
I253
sg1091
I1064
sg288
I261
sg607
I580
sg1941
I1914
sg1676
I1649
sg1165
I1138
sg1759
I1732
sg838
I811
sg170
I143
sg887
I860
sg1294
I1267
sg1895
I1868
sg1923
I1896
sg1145
I1118
sg575
I548
sg834
I807
sg1810
I1783
sg1483
I1456
sg313
I286
sg2018
I1991
sg1025
I998
sg60
I33
sg463
I436
sg557
I530
sg1629
I1602
sg1761
I1734
sg2048
I2021
sg2172
I2145
sg1103
I1076
sg1013
I986
sg1495
I1468
sg1389
I1362
sg954
I927
sg289
I262
sg109
I82
sg203
I176
sg1238
I1211
sg1031
I1004
sg322
I295
sg1111
I1084
sg1579
I1552
sg1267
I1240
sg2067
I2040
sg404
I377
sg1825
I1798
sg1325
I1298
sg1008
I981
sg1993
I1966
sg286
I259
sg1134
I1107
sg355
I328
sg1278
I1251
sg1329
I1302
sg51
I24
sg1533
I1506
sg734
I707
sg743
I716
sg1420
I1393
sg934
I907
sg1545
I1518
sg151
I124
sg191
I164
sg1530
I1503
sg1096
I1069
sg915
I888
sg1235
I1208
sg1967
I1940
sg1195
I1168
sg704
I677
sg601
I574
sg364
I337
sg2091
I2064
sg1352
I1325
sg204
I177
sg428
I401
sg206
I179
sg1513
I1486
sg1654
I1627
sg89
I62
sg98
I71
sg1176
I1149
sg632
I605
sg769
I742
sg1284
I1257
sg103
I76
sg973
I946
sg1669
I1642
sg351
I324
sg1004
I977
sg1122
I1095
sg377
I350
sg57
I30
sg2224
I2197
sg2189
I2162
sg1703
I1676
sg1153
I1126
sg1377
I1350
sg379
I352
sg803
I776
sg2069
I2042
sg2169
I2142
sg1118
I1091
sg267
I240
sg1828
I1801
sg2117
I2090
sg1201
I1174
sg1648
I1621
sg965
I938
sg549
I522
sg1184
I1157
sg249
I222
sg1884
I1857
sg1879
I1852
sg754
I727
sg1236
I1209
sg1133
I1106
sg1704
I1677
sg1337
I1310
sg2174
I2147
sg302
I275
sg650
I623
sg1794
I1767
sg2157
I2130
sg1780
I1753
sg967
I940
sg332
I305
sg268
I241
sg380
I353
sg1374
I1347
sg1333
I1306
sg436
I409
sg1170
I1143
sg1430
I1403
sg2010
I1983
sg1088
I1061
sg1872
I1845
sg1823
I1796
sg2188
I2161
sg825
I798
sg666
I639
sg1144
I1117
sg1696
I1669
sg933
I906
sg1276
I1249
sg1642
I1615
sg155
I128
sg617
I590
sg1569
I1542
sg1866
I1839
sg907
I880
sg1809
I1782
sg1713
I1686
sg1900
I1873
sg751
I724
sg1918
I1891
sg1149
I1122
sg639
I612
sg2027
I2000
sg493
I466
sg1492
I1465
sg1227
I1200
sg2233
I2206
sg499
I472
sg359
I332
sg1246
I1219
sg923
I896
sg1687
I1660
sg1079
I1052
sg582
I555
sg237
I210
sg1753
I1726
sg1873
I1846
sg483
I456
sg1127
I1100
sg1218
I1191
sg326
I299
sg670
I643
sg1971
I1944
sg886
I859
sg270
I243
sg1327
I1300
sg1887
I1860
sg1409
I1382
sg74
I47
sg2143
I2116
sg711
I684
sg2144
I2117
sg879
I852
sg562
I535
sg1465
I1438
sg972
I945
sg2096
I2069
sg376
I349
sg1961
I1934
sg1874
I1847
sg1972
I1945
sg1597
I1570
sg1817
I1790
sg1494
I1467
sg113
I86
sg725
I698
sg2123
I2096
sg1456
I1429
sg158
I131
sg1915
I1888
sg2190
I2163
sg531
I504
sg1163
I1136
sg501
I474
sg908
I881
sg242
I215
sg998
I971
sg1302
I1275
sg1119
I1092
sg157
I130
sg1897
I1870
sg909
I882
sg1291
I1264
sg325
I298
sg1264
I1237
sg407
I380
sg687
I660
sg1326
I1299
sg1466
I1439
sg1288
I1261
sg194
I167
sg722
I695
sg427
I400
sg220
I193
sg460
I433
sg1155
I1128
sg1606
I1579
sg2238
I2211
sg1482
I1455
sg1407
I1380
sg97
I70
sg806
I779
sg1685
I1658
sg1489
I1462
sg630
I603
sg1295
I1268
sg1958
I1931
sg956
I929
sg159
I132
sg2097
I2070
sg1620
I1593
sg945
I918
sg1607
I1580
sg1616
I1589
sg581
I554
sg777
I750
sg299
I272
sg1154
I1127
sg2211
I2184
sg1635
I1608
sg2099
I2072
sg1600
I1573
sg848
I821
sg1740
I1713
sg1171
I1144
sg1842
I1815
sg1324
I1297
sg67
I40
sg1914
I1887
sg1339
I1312
sg1796
I1769
sg1896
I1869
sg522
I495
sg1542
I1515
sg1026
I999
sg1543
I1516
sg291
I264
sg1837
I1810
sg77
I50
sg1423
I1396
sg319
I292
sg774
I747
sg1622
I1595
sg1854
I1827
sg1381
I1354
sg1811
I1784
sg205
I178
sg1129
I1102
sg163
I136
sg534
I507
sg1115
I1088
sg1028
I1001
sg1812
I1785
sg171
I144
sg910
I883
sg1217
I1190
sg1515
I1488
sg1368
I1341
sg1813
I1786
sg415
I388
sg916
I889
sg563
I536
sg244
I217
sg1783
I1756
sg367
I340
sg1231
I1204
sg63
I36
sg381
I354
sg1006
I979
sg106
I79
sg1433
I1406
sg494
I467
sg1793
I1766
sg1974
I1947
sg215
I188
sg1147
I1120
sg539
I512
sg1773
I1746
sg1437
I1410
sg1225
I1198
sg790
I763
sg1132
I1105
sg1280
I1253
sg130
I103
sg514
I487
sg1363
I1336
sg1124
I1097
sg295
I268
sg1342
I1315
sg440
I413
sg1413
I1386
sg1627
I1600
sg1309
I1282
sg1039
I1012
sg726
I699
sg185
I158
sg935
I908
sg276
I249
sg695
I668
sg1197
I1170
sg62
I35
sg85
I58
sg782
I755
sg1100
I1073
sg1819
I1792
sg1180
I1153
sg2016
I1989
sg600
I573
sg1610
I1583
sg1479
I1452
sg867
I840
sg2219
I2192
sg144
I117
sg2182
I2155
sg61
I34
sg399
I372
sg964
I937
sg1506
I1479
sg2163
I2136
sg390
I363
sg745
I718
sg2228
I2201
sg653
I626
sg677
I650
sg1102
I1075
sg783
I756
sg2019
I1992
sg1436
I1409
sg1650
I1623
sg733
I706
sg623
I596
sg1010
I983
sg1371
I1344
sg1634
I1607
sg1212
I1185
sg36
I9
sg421
I394
sg33
I6
sg849
I822
sg545
I518
sg913
I886
sg1064
I1037
sg1540
I1513
sg1468
I1441
sg1502
I1475
sg701
I674
sg536
I509
sg1260
I1233
sg1806
I1779
sg1220
I1193
sg2227
I2200
sg451
I424
sg1467
I1440
sg841
I814
sg706
I679
sg655
I628
sg1997
I1970
sg349
I322
sg410
I383
sg1328
I1301
sg1976
I1949
sg1552
I1525
sg195
I168
sg1509
I1482
sg1242
I1215
sg2234
I2207
sg2035
I2008
sg586
I559
sg760
I733
sg309
I282
sg1899
I1872
sg1845
I1818
sg1882
I1855
sg721
I694
sg1830
I1803
sg1182
I1155
sg1018
I991
sg1286
I1259
sg164
I137
sg2177
I2150
sg616
I589
sg930
I903
sg2239
I2212
sg1402
I1375
sg1472
I1445
sg1343
I1316
sg2170
I2143
sg2003
I1976
sg2236
I2209
sg2210
I2183
sg1894
I1867
sg1459
I1432
sg435
I408
sg2229
I2202
sg2116
I2089
sg218
I191
sg1508
I1481
sg1922
I1895
sg236
I209
sg853
I826
sg1564
I1537
sg245
I218
sg860
I833
sg1683
I1656
sg360
I333
sg2129
I2102
sg1578
I1551
sg189
I162
sg882
I855
sg594
I567
sg980
I953
sg708
I681
sg1875
I1848
sg1249
I1222
sg969
I942
sg1544
I1517
sg1151
I1124
sg2202
I2175
sg921
I894
sg1617
I1590
sg1604
I1577
sg303
I276
sg1664
I1637
sg1045
I1018
sg1749
I1722
sg2111
I2084
sg622
I595
sg799
I772
sg865
I838
sg804
I777
sg1619
I1592
sg990
I963
sg2062
I2035
sg656
I629
sg496
I469
sg1245
I1218
sg1630
I1603
sg382
I355
sg2226
I2199
sg1785
I1758
sg363
I336
sg1798
I1771
sg989
I962
sg1206
I1179
sg1405
I1378
sg1646
I1619
sg317
I290
sg2153
I2126
sg1978
I1951
sg232
I205
sg1060
I1033
sg120
I93
sg1518
I1491
sg2205
I2178
sg1906
I1879
sg1678
I1651
sg1541
I1514
sg2207
I2180
sg872
I845
sg604
I577
sg166
I139
sg999
I972
sg1700
I1673
sg1725
I1698
sg504
I477
sg346
I319
sg1744
I1717
sg1449
I1422
sg603
I576
sg1318
I1291
sg2012
I1985
sg1722
I1695
sg2119
I2092
sg101
I74
sg1855
I1828
sg2128
I2101
sg820
I793
sg1359
I1332
sg1009
I982
sg1299
I1272
sg1643
I1616
sg920
I893
sg1710
I1683
sg1779
I1752
sg2218
I2191
sg1850
I1823
sg1273
I1246
sg580
I553
sg2006
I1979
sg1625
I1598
sg1876
I1849
sg2106
I2079
sg1525
I1498
sg595
I568
sg1637
I1610
sg1487
I1460
sg852
I825
sg649
I622
sg64
I37
sg713
I686
sg1726
I1699
sg511
I484
sg1699
I1672
sg1560
I1533
sg610
I583
sg519
I492
sg2071
I2044
sg1864
I1837
sg1611
I1584
sg1382
I1355
sg154
I127
sg672
I645
sg1199
I1172
sg1277
I1250
sg2213
I2186
sg1851
I1824
sg946
I919
sg550
I523
sg1384
I1357
sg269
I242
sg88
I61
sg1763
I1736
sg373
I346
sg1493
I1466
sg424
I397
sg663
I636
sg1081
I1054
sg1661
I1634
sg1121
I1094
sg275
I248
sg2089
I2062
sg1141
I1114
sg466
I439
sg398
I371
sg1282
I1255
sg27
I0
sg162
I135
sg942
I915
sg1505
I1478
sg395
I368
sg707
I680
sg846
I819
sg1907
I1880
sg177
I150
sg1641
I1614
sg736
I709
sg787
I760
sg702
I675
sg1210
I1183
sg1982
I1955
sg1902
I1875
sg1075
I1048
sg1320
I1293
sg2195
I2168
sg437
I410
sg2066
I2039
sg835
I808
sg79
I52
sg698
I671
sg2108
I2081
sg1514
I1487
sg54
I27
sg832
I805
sg1117
I1090
sg554
I527
sg1219
I1192
sg1083
I1056
sg959
I932
sg914
I887
sg213
I186
sg847
I820
sg200
I173
sg190
I163
sg871
I844
sg1461
I1434
sg1539
I1512
sg628
I601
sg1595
I1568
sg631
I604
sg1707
I1680
sg457
I430
ssg20
(lp2241
sbs.