(dp0
S'fold'
p1
I3
sS'seed'
p2
I345
sS'lr'
p3
F0.063
sS'verbose'
p4
I1
sS'partialTraining'
p5
F0.95
sS'bs'
p6
I9
sS'emb_dimension'
p7
I100
sS'win'
p8
I7
sS'partialTesting'
p9
F0.05
sS'nhidden'
p10
I40
s.